((dp0
Vfoul
p1
(lp2
Vf
p3
aVaU
p4
aVl
p5
asVfour
p6
(lp7
g3
aVo@
p8
asVsleep
p9
(lp10
Vs
p11
ag5
aVi:
p12
aVp
p13
asVhanging
p14
(lp15
Vh
p16
aVa
p17
aVN
p18
aVI
p19
ag18
asVscheming
p20
(lp21
g11
aVk
p22
aVi:
p23
aVm
p24
ag19
ag18
asVcaptain
p25
(lp26
g22
ag17
ag13
aVt
p27
ag19
aVn
p28
asVconsider
p29
(lp30
g22
aV@
p31
ag28
ag11
ag19
aVd
p32
aV3
p33
asVdrinkin
p34
(lp35
g32
aVr
p36
ag19
ag18
ag22
ag19
ag28
asVwhose
p37
(lp38
g16
aVu:
p39
aVz
p40
asVbuddy
p41
(lp42
Vb
p43
aVV
p44
ag32
aVi
p45
asVunder
p46
(lp47
g44
ag28
ag32
ag33
asVceenotes
p48
(lp49
g11
aVi:
p50
ag28
aVoU
p51
ag27
ag11
asVbangles
p52
(lp53
g43
ag17
ag18
aVg
p54
aV@L
p55
ag40
asVpride
p56
(lp57
g13
ag36
aVaI
p58
ag32
asVworth
p59
(lp60
Vw
p61
aV3:
p62
aVT
p63
asVcarried
p64
(lp65
g22
ag17
ag36
ag45
ag32
asVfists
p66
(lp67
g3
ag19
ag11
ag27
ag11
asVcallin
p68
(lp69
g22
aVO:
p70
ag5
aVI2
p71
ag28
asVcompassion
p72
(lp73
g22
ag31
ag24
ag13
ag17
aVS
p74
ag31
ag28
asVdistort
p75
(lp76
g32
aVI2
p77
ag11
ag27
aVO@
p78
ag27
asVyanking
p79
(lp80
Vj
p81
ag17
ag18
ag22
ag19
ag18
asVevery
p82
(lp83
VE
p84
aVv
p85
ag36
aVI2
p86
asVjack
p87
(lp88
VdZ
p89
ag17
ag22
asVlook
p90
(lp91
g5
aVU
p92
ag22
asVclovers
p93
(lp94
g22
ag5
aVoU
p95
ag85
ag33
ag40
asVschool
p96
(lp97
g11
ag22
aVu:
p98
ag5
asVbaking
p99
(lp100
g43
aVeI
p101
ag22
ag19
ag18
asVskills
p102
(lp103
g11
ag22
ag19
ag5
ag40
asVflashy
p104
(lp105
g3
ag5
ag17
ag74
ag45
asVpoppy
p106
(lp107
g13
aV0
p108
ag13
ag45
asVups
p109
(lp110
g44
ag13
ag11
asVclothes
p111
(lp112
g22
ag5
aVoU
p113
aVD
p114
ag40
asVcreepin
p115
(lp116
g22
ag36
aVi:
p117
ag13
ag19
ag28
asVgator
p118
(lp119
g54
aVeI
p120
ag27
ag33
asVstreet
p121
(lp122
g11
ag27
ag36
aVi:
p123
ag27
asVblue
p124
(lp125
g43
ag5
aVu:
p126
asVwreck
p127
(lp128
g36
ag84
ag22
asVfingers
p129
(lp130
g3
ag19
ag18
ag54
ag33
ag40
asVringin
p131
(lp132
g36
ag19
ag18
ag54
ag19
ag28
asVsideways
p133
(lp134
g11
aVaI
p135
ag32
ag61
aVeI
p136
ag40
asVnew
p137
(lp138
g28
ag81
aVu:
p139
asVever
p140
(lp141
g84
ag85
ag33
asVtold
p142
(lp143
g27
aVoU
p144
ag5
ag32
asVdeadbeat
p145
(lp146
g32
ag84
ag32
ag43
aVi:
p147
ag27
asVmen
p148
(lp149
g24
ag84
ag28
asVhere
p150
(lp151
g16
aVi@3
p152
asVmet
p153
(lp154
g24
ag84
ag27
asVchina
p155
(lp156
VtS
p157
aVaI
p158
ag28
ag31
asVkids
p159
(lp160
g22
ag19
ag32
ag40
asVdaughter
p161
(lp162
g32
aVO:
p163
ag27
ag33
asVhunting
p164
(lp165
g16
ag44
ag28
ag27
ag19
ag18
asVauction
p166
(lp167
VO:
p168
ag22
ag74
ag31
ag28
asVchanged
p169
(lp170
VtS
p171
aVeI
p172
ag28
aVdZ
p173
ag32
asVwalkin
p174
(lp175
g61
aVO:
p176
ag22
ag19
ag28
asVcrimies
p177
(lp178
g22
ag36
aVaI
p179
ag24
ag45
ag40
asVsmoke
p180
(lp181
g11
ag24
aVoU
p182
ag22
asVpullin
p183
(lp184
g13
ag92
ag5
aVI2
p185
ag28
asVpack
p186
(lp187
g13
ag17
ag22
asVyork
p188
(lp189
g81
aVO@
p190
ag22
asVfigure
p191
(lp192
g3
ag19
ag54
ag33
asVhighly
p193
(lp194
g16
aVaI
p195
ag5
ag45
asVbrought
p196
(lp197
g43
ag36
aVO:
p198
ag27
asVpound
p199
(lp200
g13
aVaU
p201
ag28
ag32
asVjackets
p202
(lp203
VdZ
p204
ag17
ag22
aVI2
p205
ag27
ag11
asVlandscape
p206
(lp207
g5
ag17
ag28
ag32
ag11
ag22
aVeI
p208
ag13
asVwould
p209
(lp210
g61
ag92
ag32
asVarmy
p211
(lp212
VA@
p213
ag24
ag45
asVpulling
p214
(lp215
g13
ag92
ag5
ag19
ag18
asVplayed
p216
(lp217
g13
ag5
aVeI
p218
ag32
asVarms
p219
(lp220
VA@
p221
ag24
ag40
asVtenders
p222
(lp223
g27
ag84
ag28
ag32
ag33
ag40
asVcall
p224
(lp225
g22
aVO:
p226
ag5
asVtryin
p227
(lp228
g27
ag36
aVaI
p229
ag19
ag28
asVtype
p230
(lp231
g27
aVaI
p232
ag13
asVtell
p233
(lp234
g27
ag84
ag5
asVfractions
p235
(lp236
g3
ag36
ag17
ag22
ag74
ag31
ag28
ag40
asVholy
p237
(lp238
g16
aVoU
p239
ag5
ag45
asVreign
p240
(lp241
g36
aVeI
p242
ag28
asVhurt
p243
(lp244
g16
aV3:
p245
ag27
asVninetysix
p246
(lp247
g28
aVaI
p248
ag28
ag27
ag19
ag11
ag19
ag22
ag11
asVhole
p249
(lp250
g16
aVoU
p251
ag5
asVhold
p252
(lp253
g16
aVoU
p254
ag5
ag32
asVme
p255
(lp256
g24
aVi:
p257
asVlocked
p258
(lp259
g5
ag108
ag22
ag27
asVroom
p260
(lp261
g36
aVu:
p262
ag24
asVmc
p263
(lp264
g84
ag24
ag11
aVi:
p265
asVwork
p266
(lp267
g61
aV3:
p268
ag22
asVroof
p269
(lp270
g36
aVu:
p271
ag3
asVcuddle
p272
(lp273
g22
ag44
ag32
aV@L
p274
asVtemperatures
p275
(lp276
g27
ag84
ag24
ag13
ag36
aVI2
p277
aVtS
p278
ag33
ag40
asVentertainer
p279
(lp280
g84
ag28
ag27
ag31
ag27
aVeI
p281
ag28
ag33
asVmy
p282
(lp283
g24
aVaI
p284
asVcould
p285
(lp286
g22
ag92
ag32
asVfortress
p287
(lp288
g3
aVO@
p289
ag27
ag36
ag31
ag11
asVshook
p290
(lp291
g74
ag92
ag22
asVsinking
p292
(lp293
g11
ag19
ag18
ag22
ag19
ag18
asVmelons
p294
(lp295
g24
ag84
ag5
ag31
ag28
ag40
asVscars
p296
(lp297
g11
ag22
aVA@
p298
ag40
asVgive
p299
(lp300
g54
ag19
ag85
asVloosed
p301
(lp302
g5
aVu:
p303
ag11
ag27
asVhoney
p304
(lp305
g16
ag44
ag28
ag45
asVthreeleaf
p306
(lp307
g63
ag36
aVi:
p308
ag5
aVi:
p309
ag3
asVhomie
p310
(lp311
g16
aVoU
p312
ag24
ag45
asVwant
p313
(lp314
g61
ag108
ag28
ag27
asVsupplyin
p315
(lp316
g11
ag31
ag13
ag5
aVaI
p317
ag19
ag28
asVkeep
p318
(lp319
g22
aVi:
p320
ag13
asVhoe
p321
(lp322
g16
aVoU
p323
asVend
p324
(lp325
g84
ag28
ag32
asVturn
p326
(lp327
g27
aV3:
p328
ag28
asVtravel
p329
(lp330
g27
ag36
ag17
ag85
aV@L
p331
asVpuzzled
p332
(lp333
g13
ag44
ag40
aV@L
p334
ag32
asVnuts
p335
(lp336
g28
ag44
ag27
ag11
asVhow
p337
(lp338
g16
aVaU
p339
asVhot
p340
(lp341
g16
ag108
ag27
asVsweared
p342
(lp343
g11
ag61
aVe@
p344
ag32
asVbeach
p345
(lp346
g43
aVi:
p347
aVtS
p348
asVmouths
p349
(lp350
g24
aVaU
p351
ag114
ag40
asVbecks
p352
(lp353
g43
ag84
ag22
ag11
asVafter
p354
(lp355
Vaa
p356
ag3
ag27
ag33
asVvicious
p357
(lp358
g85
ag19
ag74
ag31
ag11
asVaiyyo
p359
(lp360
VeI
p361
ag81
ag81
aVoU
p362
asVpimps
p363
(lp364
g13
ag19
ag24
ag13
ag11
asVwrong
p365
(lp366
g36
ag108
ag18
asVlay
p367
(lp368
g5
aVeI
p369
asVgirbauds
p370
(lp371
g54
aV3:
p372
ag43
aVO:
p373
ag32
ag40
asVsixshooter
p374
(lp375
g11
ag19
ag22
ag11
ag74
aVu:
p376
ag27
ag33
asVchildhood
p377
(lp378
VtS
p379
aVaI
p380
ag5
ag32
ag16
ag92
ag32
asVgreen
p381
(lp382
g54
ag36
aVi:
p383
ag28
asVenter
p384
(lp385
g84
ag28
ag27
ag33
asVcrackin
p386
(lp387
g22
ag36
ag17
ag22
ag19
ag28
asVrastas
p388
(lp389
g36
aVaa
p390
ag11
ag27
ag31
ag40
asVorder
p391
(lp392
VO@
p393
ag32
ag33
asVmacks
p394
(lp395
g24
ag17
ag22
ag11
asVinfested
p396
(lp397
g19
ag28
ag3
ag84
ag11
ag27
aVI2
p398
ag32
asVover
p399
(lp400
VoU
p401
ag85
ag33
asVfall
p402
(lp403
g3
aVO:
p404
ag5
asVwesterns
p405
(lp406
g61
ag84
ag11
ag27
ag33
ag28
ag40
asVdoublefours
p407
(lp408
g32
ag44
ag43
aV@L
p409
ag3
ag33
ag40
asVpledgin
p410
(lp411
g13
ag5
ag84
aVdZ
p412
ag19
ag28
asVbefore
p413
(lp414
g43
aVI2
p415
ag3
aVo@
p416
asVima
p417
(lp418
g19
ag24
ag17
asVfit
p419
(lp420
g3
ag19
ag27
asVfix
p421
(lp422
g3
ag19
ag22
ag11
asVcrew
p423
(lp424
g22
ag36
aVu:
p425
asVsprays
p426
(lp427
g11
ag13
ag36
aVeI
p428
ag40
asVwhips
p429
(lp430
g61
ag19
ag13
ag11
asVthen
p431
(lp432
g114
ag84
ag28
asVthem
p433
(lp434
g114
ag84
ag24
asVgunning
p435
(lp436
g54
ag44
ag28
ag19
ag18
asVcuties
p437
(lp438
g22
ag81
aVu:
p439
ag27
ag45
ag40
asVbreak
p440
(lp441
g43
ag36
aVeI
p442
ag22
asVbang
p443
(lp444
g43
ag17
ag18
asVaborted
p445
(lp446
Va#
p447
ag43
aVO@
p448
ag27
aVI2
p449
ag32
asVone
p450
(lp451
g61
ag108
ag28
asVsilver
p452
(lp453
g11
ag19
ag5
ag85
ag33
asVpjs
p454
(lp455
g13
aVi:
p456
aVdZ
p457
aVeI
p458
ag84
ag11
asVxeight
p459
(lp460
g40
aVeI
p461
ag27
asVstinking
p462
(lp463
g11
ag27
ag19
ag18
ag22
ag19
ag18
asVpotatoes
p464
(lp465
g13
ag31
ag27
aVeI
p466
ag27
aVoU
p467
ag40
asVrocks
p468
(lp469
g36
ag108
ag22
ag11
asVdumps
p470
(lp471
g32
ag44
ag24
ag13
ag11
asVeach
p472
(lp473
Vi:
p474
aVtS
p475
asVredding
p476
(lp477
g36
ag84
ag32
ag19
ag18
asVside
p478
(lp479
g11
aVaI
p480
ag32
asVbone
p481
(lp482
g43
aVoU
p483
ag28
asVmean
p484
(lp485
g24
aVi:
p486
ag28
asVcrimey
p487
(lp488
g22
ag36
aVaI
p489
ag24
ag45
asVlifted
p490
(lp491
g5
ag19
ag3
ag27
aVI2
p492
ag32
asVhanger
p493
(lp494
g16
ag17
ag18
ag33
asVdumping
p495
(lp496
g32
ag44
ag24
ag13
ag19
ag18
asVmahogany
p497
(lp498
g24
ag31
ag16
ag108
ag54
ag31
ag28
ag45
asVrainin
p499
(lp500
g36
aVeI
p501
ag28
ag19
ag28
asVstrips
p502
(lp503
g11
ag27
ag36
ag19
ag13
ag11
asVnavy
p504
(lp505
g28
aVeI
p506
ag85
ag45
asVmandated
p507
(lp508
g24
ag17
ag28
ag32
aVeI
p509
ag27
aVI2
p510
ag32
asVring
p511
(lp512
g36
ag19
ag18
asVwhip
p513
(lp514
g61
ag19
ag13
asVgon
p515
(lp516
g54
ag108
ag28
asVswellin
p517
(lp518
g11
ag61
ag84
ag5
aVI2
p519
ag28
asVsatans
p520
(lp521
g11
aVeI
p522
ag27
ag31
ag28
ag40
asVsluts
p523
(lp524
g11
ag5
ag44
ag27
ag11
asVgod
p525
(lp526
g54
ag108
ag32
asVparticles
p527
(lp528
g13
aVA@
p529
ag27
ag19
ag22
aV@L
p530
ag40
asVlaid
p531
(lp532
g5
aVeI
p533
ag32
asVgot
p534
(lp535
g54
ag108
ag27
asVcity
p536
(lp537
g11
ag19
ag27
ag45
asVhang
p538
(lp539
g16
ag17
ag18
asVfree
p540
(lp541
g3
ag36
aVi:
p542
asVputty
p543
(lp544
g13
ag44
ag27
ag45
asVvets
p545
(lp546
g85
ag84
ag27
ag11
asVrain
p547
(lp548
g36
aVeI
p549
ag28
asVrakims
p550
(lp551
g36
ag17
ag22
aVI2
p552
ag24
ag40
asVwanted
p553
(lp554
g61
ag108
ag28
ag27
aVI2
p555
ag32
asVwestside
p556
(lp557
g61
ag84
ag11
ag27
ag11
aVaI
p558
ag32
asVlollipop
p559
(lp560
g5
ag108
ag5
ag19
ag13
ag108
ag13
asVcertified
p561
(lp562
g11
aV3:
p563
ag27
aVI2
p564
ag3
aVaI
p565
ag32
asVcarrys
p566
(lp567
g22
ag17
ag36
ag45
ag40
asVshaggy
p568
(lp569
g74
ag17
ag54
ag45
asVdays
p570
(lp571
g32
aVeI
p572
ag40
asVsoda
p573
(lp574
g11
aVoU
p575
ag32
ag31
asVshootin
p576
(lp577
g74
aVu:
p578
ag27
ag19
ag28
asVfuckin
p579
(lp580
g3
ag44
ag22
ag19
ag28
asVmaggie
p581
(lp582
g24
ag17
ag54
ag45
asValready
p583
(lp584
VO:
p585
ag5
ag36
ag84
ag32
ag45
asVchamps
p586
(lp587
VtS
p588
ag17
ag24
ag13
ag11
asVhoop
p589
(lp590
g16
aVu:
p591
ag13
asVdopefiends
p592
(lp593
g32
aVoU
p594
ag13
ag3
aVi:
p595
ag28
ag32
ag40
asVchannels
p596
(lp597
VtS
p598
ag17
ag28
aV@L
p599
ag40
asVchopper
p600
(lp601
VtS
p602
ag108
ag13
ag33
asVcomin
p603
(lp604
g22
ag108
ag24
ag19
ag28
asVhood
p605
(lp606
g16
ag92
ag32
asVtop
p607
(lp608
g27
ag108
ag13
asVgirls
p609
(lp610
g54
aV3:
p611
ag5
ag40
asVtwisted
p612
(lp613
g27
ag61
ag19
ag11
ag27
aVI2
p614
ag32
asVneeded
p615
(lp616
g28
aVi:
p617
ag32
aVI2
p618
ag32
asVtoo
p619
(lp620
g27
aVu:
p621
asVrockin
p622
(lp623
g36
ag108
ag22
ag19
ag28
asVtwentys
p624
(lp625
g27
ag61
ag84
ag28
ag27
ag45
ag40
asVlegs
p626
(lp627
g5
ag84
ag54
ag40
asVbitter
p628
(lp629
g43
ag19
ag27
ag33
asVlisten
p630
(lp631
g5
ag19
ag11
ag31
ag28
asVceiling
p632
(lp633
g11
aVi:
p634
ag5
ag19
ag18
asVstreets
p635
(lp636
g11
ag27
ag36
aVi:
p637
ag27
ag11
asVcollapse
p638
(lp639
g22
ag31
ag5
ag17
ag13
ag11
asVtool
p640
(lp641
g27
aVu:
p642
ag5
asVtook
p643
(lp644
g27
ag92
ag22
asVrobyn
p645
(lp646
g36
ag108
ag43
ag19
ag28
asVbringin
p647
(lp648
g43
ag36
ag19
ag18
ag54
ag19
ag28
asVwardrobe
p649
(lp650
g61
aVO@
p651
ag32
ag36
aVoU
p652
ag43
asVhike
p653
(lp654
g16
aVaI
p655
ag22
asVoutlaw
p656
(lp657
VaU
p658
ag27
ag5
aVO:
p659
asVrolex
p660
(lp661
g36
aVoU
p662
ag5
ag84
ag22
ag11
asVmatter
p663
(lp664
g24
ag17
ag27
ag33
asVsilly
p665
(lp666
g11
ag19
ag5
ag45
asVfriend
p667
(lp668
g3
ag36
ag84
ag28
ag32
asViron
p669
(lp670
VaI@
p671
ag28
asVpelle
p672
(lp673
g13
ag84
ag5
asVravished
p674
(lp675
g36
ag17
ag85
ag19
ag74
ag27
asVmink
p676
(lp677
g24
ag19
ag18
ag22
asVran
p678
(lp679
g36
ag17
ag28
asVportraits
p680
(lp681
g13
aVo@
p682
ag27
ag36
aVeI
p683
ag27
ag11
asVmind
p684
(lp685
g24
aVaI
p686
ag28
ag32
asVmine
p687
(lp688
g24
aVaI
p689
ag28
asVraw
p690
(lp691
g36
aVO:
p692
asVscabby
p693
(lp694
g11
ag22
ag17
ag43
ag45
asVseed
p695
(lp696
g11
aVi:
p697
ag32
asVrap
p698
(lp699
g36
ag17
ag13
asVscrews
p700
(lp701
g11
ag22
ag36
aVu:
p702
ag40
asVpoundcake
p703
(lp704
g13
aVaU
p705
ag28
ag32
ag22
aVeI
p706
ag22
asVdozen
p707
(lp708
g32
ag44
ag40
ag31
ag28
asVparamedics
p709
(lp710
g13
ag17
ag36
ag31
ag24
ag84
ag32
ag19
ag22
ag11
asVseethrough
p711
(lp712
g11
aVi:
p713
ag63
ag36
aVu:
p714
asVsnow
p715
(lp716
g11
ag28
aVoU
p717
asVthorough
p718
(lp719
g63
ag44
ag36
ag31
asVchest
p720
(lp721
VtS
p722
ag84
ag11
ag27
asVhoods
p723
(lp724
g16
ag92
ag32
ag40
asVpanties
p725
(lp726
g13
aVaa
p727
ag28
ag27
ag45
ag40
asVrides
p728
(lp729
g36
aVaI
p730
ag32
ag40
asVsoaker
p731
(lp732
g11
aVoU
p733
ag22
ag33
asVeven
p734
(lp735
Vi:
p736
ag85
ag31
ag28
asVthough
p737
(lp738
g114
aVoU
p739
asVfaceover
p740
(lp741
g3
aVeI
p742
ag11
aVoU
p743
ag85
ag33
asVdoin
p744
(lp745
g32
aVu:
p746
ag19
ag28
asVwhat
p747
(lp748
g61
ag108
ag27
asVgotsta
p749
(lp750
g54
ag108
ag27
ag11
ag27
ag31
asVvictoria
p751
(lp752
g85
ag19
ag22
ag27
aVo@
p753
ag36
aVi@
p754
asVmouth
p755
(lp756
g24
aVaU
p757
ag63
asVplenty
p758
(lp759
g13
ag5
ag84
ag28
ag27
ag45
asVwettin
p760
(lp761
g61
ag84
ag27
ag19
ag28
asVunorthodox
p762
(lp763
g44
ag28
aVO@
p764
ag63
ag31
ag32
ag108
ag22
ag11
asVthe
p765
(lp766
g114
ag31
asVglow
p767
(lp768
g54
ag5
aVoU
p769
asVdon
p770
(lp771
g32
ag108
ag28
asVdom
p772
(lp773
g32
ag108
ag24
asVflow
p774
(lp775
g3
ag5
aVoU
p776
asVdog
p777
(lp778
g32
ag108
ag54
asVhoochies
p779
(lp780
g16
aVu:
p781
aVtS
p782
ag45
ag40
asVbracket
p783
(lp784
g43
ag36
ag17
ag22
aVI2
p785
ag27
asVenterprise
p786
(lp787
g84
ag28
ag27
ag33
ag13
ag36
aVaI
p788
ag40
asVnineteenth
p789
(lp790
g28
aVaI
p791
ag28
ag27
aVi:
p792
ag28
ag63
asVcame
p793
(lp794
g22
aVeI
p795
ag24
asVsaying
p796
(lp797
g11
aVeI
p798
ag19
ag18
asVbait
p799
(lp800
g43
aVeI
p801
ag27
asVhunger
p802
(lp803
g16
ag44
ag18
ag54
ag33
asVqueen
p804
(lp805
g22
ag61
aVi:
p806
ag28
asVpopo
p807
(lp808
g13
aVoU
p809
ag13
aVoU
p810
asVbonnie
p811
(lp812
g43
ag108
ag28
ag45
asVinfrared
p813
(lp814
g19
ag28
ag3
ag36
ag31
ag36
ag84
ag32
asVpops
p815
(lp816
g13
ag108
ag13
ag11
asVsneaking
p817
(lp818
g11
ag28
aVi:
p819
ag22
ag19
ag18
asVmake
p820
(lp821
g24
aVeI
p822
ag22
asVcaper
p823
(lp824
g22
aVeI
p825
ag13
ag33
asVjust
p826
(lp827
VdZ
p828
ag44
ag11
ag27
asVlights
p829
(lp830
g5
aVaI
p831
ag27
ag11
asVexplain
p832
(lp833
g84
ag22
ag11
ag13
ag5
aVeI
p834
ag28
asVbust
p835
(lp836
g43
ag44
ag11
ag27
asVsugar
p837
(lp838
g74
ag92
ag54
ag33
asVrick
p839
(lp840
g36
ag19
ag22
asVrich
p841
(lp842
g36
ag19
aVtS
p843
asVgangsta
p844
(lp845
g54
ag17
ag18
ag11
ag27
ag31
asVdo
p846
(lp847
g32
aVu:
p848
asVdj
p849
(lp850
g32
aVi:
p851
aVdZ
p852
aVeI
p853
asVloved
p854
(lp855
g5
ag44
ag85
ag32
asVsmut
p856
(lp857
g11
ag24
ag44
ag27
asVstop
p858
(lp859
g11
ag27
ag108
ag13
asVgotti
p860
(lp861
g54
ag108
ag27
ag45
asVcoast
p862
(lp863
g22
aVoU
p864
ag11
ag27
asVfrowning
p865
(lp866
g3
ag36
aVaU
p867
ag28
ag19
ag18
asVtammy
p868
(lp869
g27
ag17
ag24
ag45
asVfetish
p870
(lp871
g3
ag84
ag27
ag19
ag74
asVdr
p872
(lp873
g32
ag108
ag22
ag27
ag33
asVbar
p874
(lp875
g43
aVA@
p876
asVfields
p877
(lp878
g3
aVi:
p879
ag5
ag32
ag40
asVshape
p880
(lp881
g74
aVeI
p882
ag13
asVbag
p883
(lp884
g43
ag17
ag54
asVbad
p885
(lp886
g43
ag17
ag32
asVshots
p887
(lp888
g74
ag108
ag27
ag11
asVsteak
p889
(lp890
g11
ag27
aVeI
p891
ag22
asVgotta
p892
(lp893
g54
ag108
ag27
ag31
asVears
p894
(lp895
Vi@3
p896
ag40
asVheaded
p897
(lp898
g16
ag84
ag32
aVI2
p899
ag32
asVblew
p900
(lp901
g43
ag5
aVu:
p902
asVfair
p903
(lp904
g3
aVe@
p905
asVhabit
p906
(lp907
g16
ag17
ag43
ag19
ag27
asVkellay
p908
(lp909
g22
ag84
ag5
aVeI
p910
asVdecided
p911
(lp912
g32
aVI2
p913
ag11
aVaI
p914
ag32
aVI2
p915
ag32
asVhammer
p916
(lp917
g16
ag17
ag24
ag33
asVbest
p918
(lp919
g43
ag84
ag11
ag27
asVsaid
p920
(lp921
g11
ag84
ag32
asVdraws
p922
(lp923
g32
ag36
aVO:
p924
ag40
asVaway
p925
(lp926
Va#
p927
ag61
aVeI
p928
asVrings
p929
(lp930
g36
ag19
ag18
ag40
asVstamps
p931
(lp932
g11
ag27
ag17
ag24
ag13
ag11
asVprops
p933
(lp934
g13
ag36
ag108
ag13
ag11
asVspunky
p935
(lp936
g11
ag13
ag44
ag18
ag22
ag45
asVpreserve
p937
(lp938
g13
ag36
ag19
ag40
aV3:
p939
ag85
asVwe
p940
(lp941
g61
aVi:
p942
asVnever
p943
(lp944
g28
ag84
ag85
ag33
asVrolled
p945
(lp946
g36
aVoU
p947
ag5
ag32
asVfelony
p948
(lp949
g3
ag84
ag5
ag31
ag28
ag45
asVweak
p950
(lp951
g61
aVi:
p952
ag22
asVboss
p953
(lp954
g43
ag108
ag11
asVdedication
p955
(lp956
g32
ag84
ag32
ag19
ag22
aVeI
p957
ag74
ag31
ag28
asVcousin
p958
(lp959
g22
ag44
ag40
ag31
ag28
asVpicking
p960
(lp961
g13
ag19
ag22
ag19
ag18
asVblasted
p962
(lp963
g43
ag5
aVaa
p964
ag11
ag27
aVI2
p965
ag32
asVkitchen
p966
(lp967
g22
ag19
aVtS
p968
ag31
ag28
asVfoes
p969
(lp970
g3
aVoU
p971
ag40
asVcos
p972
(lp973
g22
ag108
ag11
asVaccident
p974
(lp975
g17
ag22
ag11
ag19
ag32
ag31
ag28
ag27
asVill
p976
(lp977
g19
ag5
asVgames
p978
(lp979
g54
aVeI
p980
ag24
ag40
asVlookin
p981
(lp982
g5
ag92
ag22
ag19
ag28
asVfaces
p983
(lp984
g3
aVeI
p985
ag11
aVI2
p986
ag40
asVpoorhouse
p987
(lp988
g13
aVU@
p989
ag16
aVaU
p990
ag11
asVwinnin
p991
(lp992
g61
ag19
ag28
ag19
ag28
asVtough
p993
(lp994
g27
ag44
ag3
asVheight
p995
(lp996
g16
aVaI
p997
ag27
asVcanyon
p998
(lp999
g22
ag17
ag28
ag19
aV
p1000
ag31
ag28
asVtony
p1001
(lp1002
g27
aVoU
p1003
ag28
ag45
asVloaded
p1004
(lp1005
g5
aVoU
p1006
ag32
aVI2
p1007
ag32
asVbeheaded
p1008
(lp1009
g43
aVI2
p1010
ag16
ag84
ag32
aVI2
p1011
ag32
asVtrust
p1012
(lp1013
g27
ag36
ag44
ag11
ag27
asVspeak
p1014
(lp1015
g11
ag13
aVi:
p1016
ag22
asVsam
p1017
(lp1018
g11
ag17
ag24
asVbeef
p1019
(lp1020
g43
aVi:
p1021
ag3
asVchrome
p1022
(lp1023
g22
ag36
aVoU
p1024
ag24
asVthree
p1025
(lp1026
g63
ag36
aVi:
p1027
asVbeen
p1028
(lp1029
g43
aVi:
p1030
ag28
asVmuch
p1031
(lp1032
g24
ag44
aVtS
p1033
asVfrisk
p1034
(lp1035
g3
ag36
ag19
ag11
ag22
asVthrew
p1036
(lp1037
g63
ag36
aVu:
p1038
asVdots
p1039
(lp1040
g32
ag108
ag27
ag11
asVlife
p1041
(lp1042
g5
aVaI
p1043
ag3
asVspit
p1044
(lp1045
g11
ag13
ag19
ag27
asVmonetize
p1046
(lp1047
g24
ag108
ag28
aVI2
p1048
ag27
aVaI
p1049
ag40
asVdrugs
p1050
(lp1051
g32
ag36
ag44
ag54
ag40
asVquantities
p1052
(lp1053
g22
ag61
ag108
ag28
ag27
aVI2
p1054
ag27
ag45
ag40
asVlift
p1055
(lp1056
g5
ag19
ag3
ag27
asVchild
p1057
(lp1058
VtS
p1059
aVaI
p1060
ag5
ag32
asVcatch
p1061
(lp1062
g22
ag17
aVtS
p1063
asVchill
p1064
(lp1065
VtS
p1066
ag19
ag5
asVgritty
p1067
(lp1068
g54
ag36
ag19
ag27
ag45
asVreddish
p1069
(lp1070
g36
ag84
ag32
ag19
ag74
asVservin
p1071
(lp1072
g11
aV3:
p1073
ag85
ag19
ag28
asg28
(lp1074
g84
ag28
asVaim
p1075
(lp1076
VeI
p1077
ag24
asVdrippin
p1078
(lp1079
g32
ag36
ag19
ag13
ag19
ag28
asVdroppin
p1080
(lp1081
g32
ag36
ag108
ag13
ag19
ag28
asVproperty
p1082
(lp1083
g13
ag36
ag108
ag13
ag33
ag27
ag45
asVburied
p1084
(lp1085
g43
ag84
ag36
ag45
ag32
asVseven
p1086
(lp1087
g11
ag84
ag85
ag31
ag28
asVcrowning
p1088
(lp1089
g22
ag36
aVaU
p1090
ag28
ag19
ag18
asVis
p1091
(lp1092
g19
ag40
asVit
p1093
(lp1094
g19
ag27
asVshame
p1095
(lp1096
g74
aVeI
p1097
ag24
asVcant
p1098
(lp1099
g22
aVaa
p1100
ag28
ag27
asVtissue
p1101
(lp1102
g27
ag19
ag74
aVu:
p1103
asVim
p1104
(lp1105
g19
ag24
asVcans
p1106
(lp1107
g22
ag17
ag28
ag40
asVin
p1108
(lp1109
g19
ag28
asVcolosseum
p1110
(lp1111
g22
ag108
ag5
ag31
ag11
aVi@
p1112
ag24
asVfeed
p1113
(lp1114
g3
aVi:
p1115
ag32
asVif
p1116
(lp1117
g19
ag3
asVgrown
p1118
(lp1119
g54
ag36
aVoU
p1120
ag28
asVbottles
p1121
(lp1122
g43
ag108
ag27
aV@L
p1123
ag40
asVcredit
p1124
(lp1125
g22
ag36
ag84
ag32
ag19
ag27
asVthings
p1126
(lp1127
g63
ag19
ag18
ag40
asVrealizing
p1128
(lp1129
g36
aVi@
p1130
ag5
aVaI
p1131
ag40
ag19
ag18
asVsplit
p1132
(lp1133
g11
ag13
ag5
ag19
ag27
asVputtin
p1134
(lp1135
g13
ag44
ag27
ag19
ag28
asVquittin
p1136
(lp1137
g22
ag61
ag19
ag27
ag19
ag28
asVraid
p1138
(lp1139
g36
aVeI
p1140
ag32
asVblames
p1141
(lp1142
g43
ag5
aVeI
p1143
ag24
ag40
asVtops
p1144
(lp1145
g27
ag108
ag13
ag11
asVevil
p1146
(lp1147
Vi:
p1148
ag85
aV@L
p1149
asVhand
p1150
(lp1151
g16
ag17
ag28
ag32
asVkin
p1152
(lp1153
g22
ag19
ag28
asVkid
p1154
(lp1155
g22
ag19
ag32
asVfurlough
p1156
(lp1157
g3
aV3:
p1158
ag5
aVoU
p1159
asVstupendous
p1160
(lp1161
g11
ag27
ag81
aVu:
p1162
ag13
ag84
ag28
ag32
ag31
ag11
asVyoure
p1163
(lp1164
g81
aVo@
p1165
asVsmokes
p1166
(lp1167
g11
ag24
aVoU
p1168
ag22
ag11
asVsmoker
p1169
(lp1170
g11
ag24
aVoU
p1171
ag22
ag33
asVburgers
p1172
(lp1173
g43
aV3:
p1174
ag54
ag33
ag40
asVmother
p1175
(lp1176
g24
ag44
ag114
ag33
asVhearts
p1177
(lp1178
g16
aVA@
p1179
ag27
ag11
asValabama
p1180
(lp1181
g17
ag5
ag31
ag43
ag17
ag24
ag31
asVleft
p1182
(lp1183
g5
ag84
ag3
ag27
asVprotocol
p1184
(lp1185
g13
ag36
aVoU
p1186
ag27
ag31
ag22
ag108
ag5
asVgivin
p1187
(lp1188
VdZ
p1189
ag19
ag85
ag19
ag28
asVgods
p1190
(lp1191
g54
ag108
ag32
ag40
asVthanks
p1192
(lp1193
g63
ag17
ag18
ag22
ag11
asVvictim
p1194
(lp1195
g85
ag19
ag22
ag27
aVI2
p1196
ag24
asVyep
p1197
(lp1198
g81
ag84
ag13
asVyet
p1199
(lp1200
g81
ag84
ag27
asVhills
p1201
(lp1202
g16
ag19
ag5
ag40
asVcherry
p1203
(lp1204
VtS
p1205
ag84
ag36
ag45
asVhad
p1206
(lp1207
g16
ag17
ag32
asVspread
p1208
(lp1209
g11
ag13
ag36
ag84
ag32
asVeasy
p1210
(lp1211
Vi:
p1212
ag40
ag45
asVprison
p1213
(lp1214
g13
ag36
ag19
ag40
ag31
ag28
asVsave
p1215
(lp1216
g11
aVeI
p1217
ag85
asVgave
p1218
(lp1219
g54
aVeI
p1220
ag85
asVpackin
p1221
(lp1222
g13
ag17
ag22
ag19
ag28
asVbands
p1223
(lp1224
g43
ag17
ag28
ag32
ag40
asVbreaks
p1225
(lp1226
g43
ag36
aVeI
p1227
ag22
ag11
asVsprint
p1228
(lp1229
g11
ag13
ag36
ag19
ag28
ag27
asVfiendin
p1230
(lp1231
g3
aVi:
p1232
ag28
ag32
ag19
ag28
asVfeelings
p1233
(lp1234
g3
aVi:
p1235
ag5
ag19
ag18
ag40
asVdreams
p1236
(lp1237
g32
ag36
aVi:
p1238
ag24
ag40
asVshoulder
p1239
(lp1240
g74
aVoU
p1241
ag5
ag32
ag33
asVbro
p1242
(lp1243
g43
ag36
aVoU
p1244
asVchunky
p1245
(lp1246
VtS
p1247
ag44
ag18
ag22
ag45
asVsteps
p1248
(lp1249
g11
ag27
ag84
ag13
ag11
asVpapes
p1250
(lp1251
g13
aVeI
p1252
ag13
ag11
asVbattlefield
p1253
(lp1254
g43
ag17
ag27
aV@L
p1255
ag3
aVi:
p1256
ag5
ag32
asVright
p1257
(lp1258
g36
aVaI
p1259
ag27
asVold
p1260
(lp1261
VoU
p1262
ag5
ag32
asVdeal
p1263
(lp1264
g32
aVi:
p1265
ag5
asVpeople
p1266
(lp1267
g13
aVi:
p1268
ag13
aV@L
p1269
asVcrown
p1270
(lp1271
g22
ag36
aVaU
p1272
ag28
asVdead
p1273
(lp1274
g32
ag84
ag32
asVborn
p1275
(lp1276
g43
aVO@
p1277
ag28
asVfor
p1278
(lp1279
g3
aVO@
p1280
asVbottom
p1281
(lp1282
g43
ag108
ag27
ag31
ag24
asVice
p1283
(lp1284
VaI
p1285
ag11
asVeverything
p1286
(lp1287
g84
ag85
ag36
aVI2
p1288
ag63
ag19
ag18
asVumm
p1289
(lp1290
g44
ag24
asVknew
p1291
(lp1292
g28
ag81
aVu:
p1293
asVburn
p1294
(lp1295
g43
aV3:
p1296
ag28
asVpliers
p1297
(lp1298
g13
ag5
aVaI@
p1299
ag40
asVpeep
p1300
(lp1301
g13
aVi:
p1302
ag13
asVsuper
p1303
(lp1304
g11
aVu:
p1305
ag13
ag33
asVpermitted
p1306
(lp1307
g13
ag33
ag24
ag19
ag27
aVI2
p1308
ag32
asVdyin
p1309
(lp1310
g32
aVaI
p1311
ag19
ag28
asVribs
p1312
(lp1313
g36
ag19
ag43
ag40
asVdinner
p1314
(lp1315
g32
ag19
ag28
ag33
asVplus
p1316
(lp1317
g13
ag5
ag44
ag11
asVown
p1318
(lp1319
VoU
p1320
ag28
asVwhats
p1321
(lp1322
g61
ag108
ag27
ag11
asVfroze
p1323
(lp1324
g3
ag36
aVoU
p1325
ag40
asVpays
p1326
(lp1327
g13
aVeI
p1328
ag40
asVson
p1329
(lp1330
g11
ag44
ag28
asVdown
p1331
(lp1332
g32
aVaU
p1333
ag28
asVlies
p1334
(lp1335
g5
aVaI
p1336
ag40
asVrounds
p1337
(lp1338
g36
aVaU
p1339
ag28
ag32
ag40
asVmurderers
p1340
(lp1341
g24
aV3:
p1342
ag32
ag33
ag36
ag1000
ag33
ag40
asVeast
p1343
(lp1344
Vi:
p1345
ag11
ag27
asVrely
p1346
(lp1347
g36
aVI2
p1348
ag5
aVaI
p1349
asVflying
p1350
(lp1351
g3
ag5
aVaI
p1352
ag19
ag18
asVlightin
p1353
(lp1354
g5
aVaI
p1355
ag27
ag19
ag28
asVwhy
p1356
(lp1357
g61
aVaI
p1358
asVway
p1359
(lp1360
g61
aVeI
p1361
asVcrews
p1362
(lp1363
g22
ag36
aVu:
p1364
ag40
asVwas
p1365
(lp1366
g61
ag108
ag40
asVwar
p1367
(lp1368
g61
aVO@
p1369
asVhappy
p1370
(lp1371
g16
ag17
ag13
ag45
asVhead
p1372
(lp1373
g16
ag84
ag32
asVbettin
p1374
(lp1375
g43
ag84
ag27
ag19
ag28
asVmighta
p1376
(lp1377
g24
aVaI
p1378
ag27
ag31
asVheat
p1379
(lp1380
g16
aVi:
p1381
ag27
asVhear
p1382
(lp1383
g16
aVi@3
p1384
asVlows
p1385
(lp1386
g5
aVoU
p1387
ag40
asVheap
p1388
(lp1389
g16
aVi:
p1390
ag13
asVremoved
p1391
(lp1392
g36
aVI2
p1393
ag24
aVu:
p1394
ag85
ag32
asVtrue
p1395
(lp1396
g27
ag36
aVu:
p1397
asVincinerator
p1398
(lp1399
g19
ag28
ag11
ag19
ag28
ag33
ag36
aVeI
p1400
ag27
ag33
asVsplittin
p1401
(lp1402
g11
ag13
ag5
ag19
ag27
ag19
ag28
asVlayin
p1403
(lp1404
g5
aVeI
p1405
ag19
ag28
asVuntil
p1406
(lp1407
g44
ag28
ag27
ag19
ag5
asVlays
p1408
(lp1409
g5
aVeI
p1410
ag40
asVdaddy
p1411
(lp1412
g32
ag17
ag32
ag45
asVtryna
p1413
(lp1414
g27
ag36
aVi:
p1415
ag28
ag31
asVshowin
p1416
(lp1417
g74
aVoU
p1418
ag19
ag28
asVthugging
p1419
(lp1420
g63
ag44
ag54
ag19
ag18
asVpotholes
p1421
(lp1422
g13
ag108
ag27
ag16
aVoU
p1423
ag5
ag40
asVshines
p1424
(lp1425
g74
aVaI
p1426
ag28
ag40
asVcheck
p1427
(lp1428
VtS
p1429
ag84
ag22
asVshit
p1430
(lp1431
g74
ag19
ag27
asVlungs
p1432
(lp1433
g5
ag44
ag18
ag40
asVdotted
p1434
(lp1435
g32
ag108
ag27
aVI2
p1436
ag32
asVno
p1437
(lp1438
g28
aVoU
p1439
asVwhen
p1440
(lp1441
g61
ag84
ag28
asVdingdong
p1442
(lp1443
g32
ag19
ag18
ag32
ag108
ag18
asVreality
p1444
(lp1445
g36
aVI2
p1446
ag1000
ag17
ag5
aVI2
p1447
ag27
ag45
asVpapers
p1448
(lp1449
g13
aVeI
p1450
ag13
ag33
ag40
asVtest
p1451
(lp1452
g27
ag84
ag11
ag27
asVhangin
p1453
(lp1454
g16
ag17
ag18
ag54
ag19
ag28
asVsmell
p1455
(lp1456
g11
ag24
ag84
ag5
asVroll
p1457
(lp1458
g36
aVoU
p1459
ag5
asVpicture
p1460
(lp1461
g13
ag19
ag22
aVtS
p1462
ag33
asVbrothers
p1463
(lp1464
g43
ag36
ag44
ag114
ag33
ag40
asVdelivered
p1465
(lp1466
g32
aVI2
p1467
ag5
ag19
ag85
ag33
ag32
asVfelt
p1468
(lp1469
g3
ag84
ag5
ag27
asVgradually
p1470
(lp1471
g54
ag36
ag17
aVdZ
p1472
aVu:
p1473
aV@L
p1474
ag45
asVfell
p1475
(lp1476
g3
ag84
ag5
asVdied
p1477
(lp1478
g32
aVaI
p1479
ag32
asVyounger
p1480
(lp1481
g81
ag44
ag18
ag54
ag33
asVshootout
p1482
(lp1483
g74
aVu:
p1484
ag27
aVaU
p1485
ag27
asVhighness
p1486
(lp1487
g16
aVaI
p1488
ag28
ag31
ag11
asVgainin
p1489
(lp1490
g54
aVeI
p1491
ag28
ag19
ag28
asVpaces
p1492
(lp1493
g13
aVeI
p1494
ag11
aVI2
p1495
ag40
asVtime
p1496
(lp1497
g27
aVaI
p1498
ag24
asVpush
p1499
(lp1500
g13
ag92
ag74
asVlaws
p1501
(lp1502
g5
aVO:
p1503
ag40
asVstacks
p1504
(lp1505
g11
ag27
ag17
ag22
ag11
asVsongs
p1506
(lp1507
g11
ag108
ag18
ag40
asVneighbors
p1508
(lp1509
g28
aVeI
p1510
ag43
ag33
ag40
asVshop
p1511
(lp1512
g74
ag108
ag13
asVron
p1513
(lp1514
g36
ag108
ag28
asVskip
p1515
(lp1516
g11
ag22
ag19
ag13
asValternatives
p1517
(lp1518
VO:
p1519
ag5
ag27
aV3:
p1520
ag28
ag31
ag27
ag19
ag85
ag40
asVskin
p1521
(lp1522
g11
ag22
ag19
ag28
asVskid
p1523
(lp1524
g11
ag22
ag19
ag32
asVrow
p1525
(lp1526
g36
aVoU
p1527
asVsuicide
p1528
(lp1529
g11
aVu:
p1530
ag19
ag11
aVaI
p1531
ag32
asVwellmeaning
p1532
(lp1533
g61
ag84
ag5
ag24
aVi:
p1534
ag28
ag19
ag18
asVflash
p1535
(lp1536
g3
ag5
ag17
ag74
asVfather
p1537
(lp1538
g3
aVA:
p1539
ag114
ag33
asVmarks
p1540
(lp1541
g24
aVA@
p1542
ag22
ag11
asVterror
p1543
(lp1544
g27
ag84
ag36
ag33
asVhammers
p1545
(lp1546
g16
ag17
ag24
ag33
ag40
asVshoot
p1547
(lp1548
g74
aVu:
p1549
ag27
asVkeeping
p1550
(lp1551
g22
aVi:
p1552
ag13
ag19
ag18
asVvegas
p1553
(lp1554
g85
aVeI
p1555
ag54
ag31
ag11
asVbustle
p1556
(lp1557
g43
ag44
ag11
aV@L
p1558
asVstays
p1559
(lp1560
g11
ag27
aVeI
p1561
ag40
asVcook
p1562
(lp1563
g22
ag92
ag22
asVword
p1564
(lp1565
g61
aV3:
p1566
ag32
asVfullest
p1567
(lp1568
g3
ag92
ag5
aVI2
p1569
ag11
ag27
asVcool
p1570
(lp1571
g22
aVu:
p1572
ag5
asVwent
p1573
(lp1574
g61
ag84
ag28
ag27
asVknockin
p1575
(lp1576
g28
ag108
ag22
ag19
ag28
asVdid
p1577
(lp1578
g32
ag19
ag32
asVdie
p1579
(lp1580
g32
aVaI
p1581
asVdig
p1582
(lp1583
g32
ag19
ag54
asVgun
p1584
(lp1585
g54
ag44
ag28
asVgleamin
p1586
(lp1587
g54
ag5
aVi:
p1588
ag24
ag19
ag28
asVtemple
p1589
(lp1590
g27
ag84
ag24
ag13
aV@L
p1591
asVleave
p1592
(lp1593
g5
aVi:
p1594
ag85
asg13
(lp1595
g13
aVi:
p1596
asVcooke
p1597
(lp1598
g22
ag92
ag22
asVhittin
p1599
(lp1600
g16
ag19
ag27
ag19
ag28
asVteam
p1601
(lp1602
g27
aVi:
p1603
ag24
asVquick
p1604
(lp1605
g22
ag61
ag19
ag22
asVguy
p1606
(lp1607
g54
aVaI
p1608
asVround
p1609
(lp1610
g36
aVaU
p1611
ag28
ag32
asVyall
p1612
(lp1613
g81
aVO:
p1614
ag5
asVpoohbutt
p1615
(lp1616
g13
aVu:
p1617
ag16
ag43
ag44
ag27
asVolympic
p1618
(lp1619
g31
ag5
ag19
ag24
ag13
ag19
ag22
asVtalked
p1620
(lp1621
g27
aVO:
p1622
ag22
ag27
asVsays
p1623
(lp1624
g11
ag84
ag40
asVlaced
p1625
(lp1626
g5
aVeI
p1627
ag11
ag27
asVbake
p1628
(lp1629
g43
aVeI
p1630
ag22
asVchicken
p1631
(lp1632
VtS
p1633
ag19
ag22
ag19
ag28
asVcoppers
p1634
(lp1635
g22
ag108
ag13
ag33
ag40
asVlennox
p1636
(lp1637
g5
ag84
ag28
ag108
ag22
ag11
asVcurse
p1638
(lp1639
g22
aV3:
p1640
ag11
asVheres
p1641
(lp1642
g16
aVi@3
p1643
ag40
asVgoes
p1644
(lp1645
g54
aVoU
p1646
ag40
asVfalling
p1647
(lp1648
g3
aVO:
p1649
ag5
ag19
ag18
asVfilled
p1650
(lp1651
g3
ag19
ag5
ag32
asVhummer
p1652
(lp1653
g16
ag44
ag24
ag33
asVpose
p1654
(lp1655
g13
aVoU
p1656
ag40
asVprescriptions
p1657
(lp1658
g13
ag36
ag19
ag11
ag22
ag36
ag19
ag13
ag74
ag31
ag28
ag40
asVblunted
p1659
(lp1660
g43
ag5
ag44
ag28
ag27
aVI2
p1661
ag32
asVridin
p1662
(lp1663
g36
ag19
ag32
ag19
ag28
asVsuppressors
p1664
(lp1665
g11
ag31
ag13
ag36
ag84
ag11
ag33
ag40
asVyards
p1666
(lp1667
g81
aVA@
p1668
ag32
ag40
asValone
p1669
(lp1670
Va#
p1671
ag5
aVoU
p1672
ag28
asVsuckers
p1673
(lp1674
g11
ag44
ag22
ag33
ag40
asVcoochie
p1675
(lp1676
g22
aVu:
p1677
aVtS
p1678
ag45
asVchange
p1679
(lp1680
VtS
p1681
aVeI
p1682
ag28
aVdZ
p1683
asVboy
p1684
(lp1685
g43
aVOI
p1686
asVpearly
p1687
(lp1688
g13
aV3:
p1689
ag5
ag45
asVeightyinch
p1690
(lp1691
VeI
p1692
ag27
ag19
ag1000
ag19
ag28
aVtS
p1693
asVflames
p1694
(lp1695
g3
ag5
aVeI
p1696
ag24
ag40
asVbop
p1697
(lp1698
g43
ag108
ag13
asVpearls
p1699
(lp1700
g13
aV3:
p1701
ag5
ag40
asVbob
p1702
(lp1703
g43
ag108
ag43
asVmotherfucking
p1704
(lp1705
g24
ag44
ag114
ag31
ag3
ag44
ag22
ag19
ag18
asVlove
p1706
(lp1707
g5
ag44
ag85
asVhumour
p1708
(lp1709
g16
ag81
aVu:
p1710
ag24
ag33
asVyouknowhatimsayin
p1711
(lp1712
g81
aVaU
p1713
ag28
aVoU
p1714
ag16
ag17
ag27
ag19
ag24
ag11
aVeI
p1715
ag19
ag28
asVbloody
p1716
(lp1717
g43
ag5
ag44
ag32
ag45
asVfake
p1718
(lp1719
g3
aVeI
p1720
ag22
asVmarket
p1721
(lp1722
g24
aVA@
p1723
ag22
ag19
ag27
asVayo
p1724
(lp1725
VaI
p1726
aVoU
p1727
asVwealth
p1728
(lp1729
g61
ag84
ag5
ag63
asVworking
p1730
(lp1731
g61
aV3:
p1732
ag22
ag19
ag18
asVsake
p1733
(lp1734
g11
aVeI
p1735
ag22
asVoverqualified
p1736
(lp1737
VoU
p1738
ag85
ag33
ag22
ag61
ag108
ag5
aVI2
p1739
ag3
aVaI
p1740
ag32
asVdangle
p1741
(lp1742
g32
ag17
ag18
ag54
aV@L
p1743
asVdude
p1744
(lp1745
g32
ag81
aVu:
p1746
ag32
asVonly
p1747
(lp1748
VoU
p1749
ag28
ag5
ag45
asVlive
p1750
(lp1751
g5
aVaI
p1752
ag85
asVmemory
p1753
(lp1754
g24
ag84
ag24
ag31
ag36
ag45
asVdiagrams
p1755
(lp1756
g32
aVaI
p1757
ag31
ag54
ag36
ag17
ag24
ag40
asVhuntin
p1758
(lp1759
g16
ag44
ag28
ag27
ag19
ag28
asVclub
p1760
(lp1761
g22
ag5
ag44
ag43
asVdistribution
p1762
(lp1763
g32
ag19
ag11
ag27
ag36
ag19
ag43
ag81
aVu:
p1764
ag74
ag31
ag28
asVeverywhere
p1765
(lp1766
g84
ag85
ag36
aVI2
p1767
ag61
aVe@
p1768
asVcases
p1769
(lp1770
g22
aVeI
p1771
ag11
aVI2
p1772
ag40
asVdrivebys
p1773
(lp1774
g32
ag36
aVaI
p1775
ag85
ag43
ag45
ag40
asVfly
p1776
(lp1777
g3
ag5
aVaI
p1778
asVwouldnt
p1779
(lp1780
g61
ag92
ag32
ag28
ag27
asVniggas
p1781
(lp1782
g28
ag19
ag54
ag31
ag40
asVheineken
p1783
(lp1784
g16
aVaI
p1785
ag28
ag84
ag22
ag31
ag28
asVcap
p1786
(lp1787
g22
ag17
ag13
asVabortion
p1788
(lp1789
Va#
p1790
ag43
aVO@
p1791
ag74
ag31
ag28
asVpayin
p1792
(lp1793
g13
aVeI
p1794
ag19
ag28
asVcat
p1795
(lp1796
g22
ag17
ag27
asVcan
p1797
(lp1798
g22
ag17
ag28
asVfollowing
p1799
(lp1800
g3
ag108
ag5
aVoU
p1801
ag19
ag18
asVmaking
p1802
(lp1803
g24
aVeI
p1804
ag22
ag19
ag18
asVzippers
p1805
(lp1806
g40
ag19
ag13
ag33
ag40
asVscramblers
p1807
(lp1808
g11
ag22
ag36
ag17
ag24
ag43
ag5
ag33
ag40
asVheart
p1809
(lp1810
g16
aVA@
p1811
ag27
asVcrazy
p1812
(lp1813
g22
ag36
aVeI
p1814
ag40
ag45
asVstream
p1815
(lp1816
g11
ag27
ag36
aVi:
p1817
ag24
asVmirrors
p1818
(lp1819
g24
ag19
ag36
ag33
ag40
asVawesome
p1820
(lp1821
VO:
p1822
ag11
ag44
ag24
asVfuck
p1823
(lp1824
g3
ag44
ag22
asVheard
p1825
(lp1826
g16
aV3:
p1827
ag32
asVtinted
p1828
(lp1829
g27
ag19
ag28
ag27
aVI2
p1830
ag32
asVposing
p1831
(lp1832
g13
aVoU
p1833
ag40
ag19
ag18
asVdropped
p1834
(lp1835
g32
ag36
ag108
ag13
ag27
asVstole
p1836
(lp1837
g11
ag27
aVoU
p1838
ag5
asVpink
p1839
(lp1840
g13
ag19
ag18
ag22
asVrays
p1841
(lp1842
g36
aVeI
p1843
ag40
asVwinter
p1844
(lp1845
g61
ag19
ag28
ag27
ag33
asVwrite
p1846
(lp1847
g36
aVaI
p1848
ag27
asVstrays
p1849
(lp1850
g11
ag27
ag36
aVeI
p1851
ag40
asVsnaps
p1852
(lp1853
g11
ag28
ag17
ag13
ag11
asVleavin
p1854
(lp1855
g5
aVi:
p1856
ag85
ag19
ag28
asVspot
p1857
(lp1858
g11
ag13
ag108
ag27
asVmac
p1859
(lp1860
g24
ag17
ag22
asVbirthday
p1861
(lp1862
g43
aV3:
p1863
ag63
ag32
aVeI
p1864
asVmad
p1865
(lp1866
g24
ag17
ag32
asVmag
p1867
(lp1868
g24
ag17
ag54
asVguys
p1869
(lp1870
g54
aVaI
p1871
ag40
asVgrow
p1872
(lp1873
g54
ag36
aVoU
p1874
asVman
p1875
(lp1876
g24
ag17
ag28
asVneck
p1877
(lp1878
g28
ag84
ag22
asVbeam
p1879
(lp1880
g43
aVi:
p1881
ag24
asVrollin
p1882
(lp1883
g36
aVoU
p1884
ag5
aVI2
p1885
ag28
asVswitch
p1886
(lp1887
g11
ag61
ag19
aVtS
p1888
asVreaper
p1889
(lp1890
g36
aVi:
p1891
ag13
ag33
asVso
p1892
(lp1893
g11
aVoU
p1894
asVblock
p1895
(lp1896
g43
ag5
ag108
ag22
asVdeceive
p1897
(lp1898
g32
aVI2
p1899
ag11
aVi:
p1900
ag85
asVsnowed
p1901
(lp1902
g11
ag28
aVoU
p1903
ag32
asVwolves
p1904
(lp1905
g61
ag92
ag5
ag85
ag40
asVpulled
p1906
(lp1907
g13
ag92
ag5
ag32
asVserving
p1908
(lp1909
g11
aV3:
p1910
ag85
ag19
ag18
asVtracies
p1911
(lp1912
g27
ag36
aVeI
p1913
ag11
ag45
ag40
asVmidnight
p1914
(lp1915
g24
ag19
ag32
ag28
aVaI
p1916
ag27
asVyears
p1917
(lp1918
g81
aVi@3
p1919
ag40
asVbrain
p1920
(lp1921
g43
ag36
aVeI
p1922
ag28
asVlyric
p1923
(lp1924
g5
ag19
ag36
ag19
ag22
asVshake
p1925
(lp1926
g74
aVeI
p1927
ag22
asVkitkats
p1928
(lp1929
g22
ag19
ag27
ag22
ag17
ag27
ag11
asVcold
p1930
(lp1931
g22
aVoU
p1932
ag5
ag32
asVstill
p1933
(lp1934
g11
ag27
ag19
ag5
asVpolice
p1935
(lp1936
g13
ag31
ag5
aVi:
p1937
ag11
asVduplex
p1938
(lp1939
g32
ag81
aVu:
p1940
ag13
ag5
ag84
ag22
ag11
asVthang
p1941
(lp1942
g63
ag17
ag18
asVpitchin
p1943
(lp1944
g13
ag19
aVtS
p1945
ag19
ag28
asVmain
p1946
(lp1947
g24
aVeI
p1948
ag28
asVinto
p1949
(lp1950
g19
ag28
ag27
ag92
asVhappened
p1951
(lp1952
g16
ag17
ag13
ag31
ag28
ag32
asVlonely
p1953
(lp1954
g5
aVoU
p1955
ag28
ag5
ag45
asVtucked
p1956
(lp1957
g27
ag44
ag22
ag27
asVmoms
p1958
(lp1959
g24
ag108
ag24
ag40
asVhalf
p1960
(lp1961
g16
aVA:
p1962
ag3
asVnot
p1963
(lp1964
g28
ag108
ag27
asVcollapsin
p1965
(lp1966
g22
ag31
ag5
ag17
ag13
ag11
ag19
ag28
asVnow
p1967
(lp1968
g28
aVaU
p1969
asVbullshit
p1970
(lp1971
g43
ag92
ag5
ag74
ag19
ag27
asVhalo
p1972
(lp1973
g16
aVeI
p1974
ag5
aVoU
p1975
asVresteraunt
p1976
(lp1977
g36
aVI2
p1978
ag11
ag27
aV3:
p1979
ag36
aVO:
p1980
ag28
ag27
asVwont
p1981
(lp1982
g61
ag108
ag28
ag27
asVwagon
p1983
(lp1984
g61
ag17
ag54
ag31
ag28
asVname
p1985
(lp1986
g28
aVeI
p1987
ag24
asVdrop
p1988
(lp1989
g32
ag36
ag108
ag13
asVlucci
p1990
(lp1991
g5
aVu:
p1992
aVtS
p1993
ag45
asVrealise
p1994
(lp1995
g36
aVi@
p1996
ag5
aVaI
p1997
ag40
asVrock
p1998
(lp1999
g36
ag108
ag22
asVveins
p2000
(lp2001
g85
aVeI
p2002
ag28
ag40
asVeighties
p2003
(lp2004
VeI
p2005
ag27
ag45
ag40
asVem
p2006
(lp2007
g84
ag24
asVtreacherous
p2008
(lp2009
g27
ag36
ag84
aVtS
p2010
ag31
ag36
ag31
ag11
asVyeah
p2011
(lp2012
g81
ag84
ag16
asVfires
p2013
(lp2014
g3
aVaI@
p2015
ag40
asVyear
p2016
(lp2017
g81
aVi@3
p2018
asVgirl
p2019
(lp2020
g54
aV3:
p2021
ag5
asVliving
p2022
(lp2023
g5
ag19
ag85
ag19
ag18
asVjackson
p2024
(lp2025
VdZ
p2026
ag17
ag22
ag11
ag31
ag28
asVopened
p2027
(lp2028
VoU
p2029
ag13
ag31
ag28
ag32
asVlooking
p2030
(lp2031
g5
ag92
ag22
ag19
ag18
asVhula
p2032
(lp2033
g16
aVu:
p2034
ag5
ag31
asVmonster
p2035
(lp2036
g24
ag108
ag28
ag11
ag27
ag33
asVcars
p2037
(lp2038
g22
aVA@
p2039
ag40
asVmillion
p2040
(lp2041
g24
ag19
ag5
aVi@
p2042
ag28
asVattackin
p2043
(lp2044
Va#
p2045
ag27
ag17
ag22
ag19
ag28
asVgots
p2046
(lp2047
g54
ag108
ag27
ag11
asVcare
p2048
(lp2049
g22
aVe@
p2050
asVtraining
p2051
(lp2052
g27
ag36
aVeI
p2053
ag28
ag19
ag18
asVdisguised
p2054
(lp2055
g32
aVI2
p2056
ag11
ag54
aVaI
p2057
ag40
ag32
asVcalories
p2058
(lp2059
g22
ag17
ag5
ag31
ag36
ag45
ag40
asVthing
p2060
(lp2061
g63
ag19
ag18
asVplace
p2062
(lp2063
g13
ag5
aVeI
p2064
ag11
asVorgoin
p2065
(lp2066
VO@
p2067
ag54
aVOI
p2068
ag28
asVmotherfuckers
p2069
(lp2070
g24
ag44
ag114
ag31
ag3
ag44
ag22
ag33
ag40
asVfirst
p2071
(lp2072
g3
aV3:
p2073
ag11
ag27
asVhoppin
p2074
(lp2075
g16
ag108
ag13
ag19
ag28
asVcrib
p2076
(lp2077
g22
ag36
ag19
ag43
asVyourself
p2078
(lp2079
g81
aVo@
p2080
ag11
ag84
ag5
ag3
asVlong
p2081
(lp2082
g5
ag108
ag18
asVrink
p2083
(lp2084
g36
ag19
ag18
ag22
asVchubby
p2085
(lp2086
VtS
p2087
ag44
ag43
ag45
asVsounds
p2088
(lp2089
g11
aVaU
p2090
ag28
ag32
ag40
asVopen
p2091
(lp2092
VoU
p2093
ag13
ag31
ag28
asVmillions
p2094
(lp2095
g24
ag19
ag5
aVi@
p2096
ag28
ag40
asVfortyfive
p2097
(lp2098
g3
aVO@
p2099
ag27
ag19
ag3
aVaI
p2100
ag85
asVlittle
p2101
(lp2102
g5
ag19
ag27
aV@L
p2103
asVboulevard
p2104
(lp2105
g43
aVu:
p2106
ag5
aVI2
p2107
ag85
aVA@
p2108
ag32
asVcaught
p2109
(lp2110
g22
aVO:
p2111
ag27
asVbreed
p2112
(lp2113
g43
ag36
aVi:
p2114
ag32
asVchecker
p2115
(lp2116
VtS
p2117
ag84
ag22
ag33
asVwhite
p2118
(lp2119
g61
aVaI
p2120
ag27
asVframe
p2121
(lp2122
g3
ag36
aVeI
p2123
ag24
asVspeaking
p2124
(lp2125
g11
ag13
aVi:
p2126
ag22
ag19
ag18
asVanus
p2127
(lp2128
VeI
p2129
ag28
ag44
ag11
asVeyes
p2130
(lp2131
VaI
p2132
ag40
asVthat
p2133
(lp2134
g114
ag17
ag27
asVbrains
p2135
(lp2136
g43
ag36
aVeI
p2137
ag28
ag40
asVcausin
p2138
(lp2139
g22
aVO:
p2140
ag40
ag31
ag28
asVhuh
p2141
(lp2142
g16
ag44
asVsnatch
p2143
(lp2144
g11
ag28
ag17
aVtS
p2145
asVcops
p2146
(lp2147
g22
ag108
ag13
ag11
asVshort
p2148
(lp2149
g74
aVO@
p2150
ag27
asVbutt
p2151
(lp2152
g43
ag44
ag27
asVshirley
p2153
(lp2154
g74
aV3:
p2155
ag5
ag45
asVthan
p2156
(lp2157
g114
aVa#
p2158
ag28
asVleakin
p2159
(lp2160
g5
aVi:
p2161
ag22
ag19
ag28
asVcolombians
p2162
(lp2163
g22
ag31
ag5
ag44
ag24
ag43
aVi@
p2164
ag28
ag40
asVrequire
p2165
(lp2166
g36
aVI2
p2167
ag22
ag61
aVaI@
p2168
asVkarate
p2169
(lp2170
g22
ag31
ag36
aVA:
p2171
ag27
ag45
asVfuture
p2172
(lp2173
g3
ag81
aVu:
p2174
aVtS
p2175
ag33
asVseventys
p2176
(lp2177
g11
ag84
ag85
ag31
ag28
ag27
ag45
ag40
asVwere
p2178
(lp2179
g61
aV3:
p2180
asVand
p2181
(lp2182
g17
ag28
ag32
asVangel
p2183
(lp2184
VeI
p2185
ag28
aVdZ
p2186
aV@L
p2187
asVturned
p2188
(lp2189
g27
aV3:
p2190
ag28
ag32
asVjewels
p2191
(lp2192
VdZ
p2193
aVu:
p2194
ag31
ag5
ag40
asVsad
p2195
(lp2196
g11
ag17
ag32
asVsay
p2197
(lp2198
g11
aVeI
p2199
asVrent
p2200
(lp2201
g36
ag84
ag28
ag27
asVanger
p2202
(lp2203
g17
ag18
ag54
ag33
asVborough
p2204
(lp2205
g43
ag44
ag36
ag31
asVany
p2206
(lp2207
g84
ag28
ag45
asVinvite
p2208
(lp2209
g19
ag28
ag85
aVaI
p2210
ag27
asVmazis
p2211
(lp2212
g24
ag17
ag40
ag45
ag40
asVtake
p2213
(lp2214
g27
aVeI
p2215
ag22
asVdestroy
p2216
(lp2217
g32
aVI2
p2218
ag11
ag27
ag36
aVOI
p2219
asVpimple
p2220
(lp2221
g13
ag19
ag24
ag13
aV@L
p2222
asVpagers
p2223
(lp2224
g13
aVeI
p2225
aVdZ
p2226
ag33
ag40
asVbets
p2227
(lp2228
g43
ag84
ag27
ag11
asVsure
p2229
(lp2230
g74
aVU@
p2231
asVpain
p2232
(lp2233
g13
aVeI
p2234
ag28
asVtrack
p2235
(lp2236
g27
ag36
ag17
ag22
asVprice
p2237
(lp2238
g13
ag36
aVaI
p2239
ag11
asVkeeps
p2240
(lp2241
g22
aVi:
p2242
ag13
ag11
asVpaid
p2243
(lp2244
g13
aVeI
p2245
ag32
asVsheets
p2246
(lp2247
g74
aVi:
p2248
ag27
ag11
asVpair
p2249
(lp2250
g13
aVe@
p2251
asVtracy
p2252
(lp2253
g27
ag36
aVeI
p2254
ag11
ag45
asVpages
p2255
(lp2256
g13
aVeI
p2257
aVdZ
p2258
aVI2
p2259
ag40
asVqueens
p2260
(lp2261
g22
ag61
aVi:
p2262
ag28
ag40
asVcuban
p2263
(lp2264
g22
ag81
aVu:
p2265
ag43
ag31
ag28
asVsevenfigure
p2266
(lp2267
g11
ag84
ag85
ag31
ag28
ag3
ag19
ag54
ag33
asVbangin
p2268
(lp2269
g43
ag17
ag18
ag54
ag19
ag28
asVlater
p2270
(lp2271
g5
aVeI
p2272
ag27
ag33
asVsteady
p2273
(lp2274
g11
ag27
ag84
ag32
ag45
asVhungry
p2275
(lp2276
g16
ag44
ag18
ag54
ag36
ag45
asVpores
p2277
(lp2278
g13
aVo@
p2279
ag40
asVwing
p2280
(lp2281
g61
ag19
ag18
asVcrooked
p2282
(lp2283
g22
ag36
ag92
ag22
ag19
ag32
asVpoundseven
p2284
(lp2285
g13
aVaU
p2286
ag28
ag32
ag11
ag84
ag85
ag31
ag28
asVprecise
p2287
(lp2288
g13
ag36
aVI2
p2289
ag11
aVaI
p2290
ag11
asVshow
p2291
(lp2292
g74
aVoU
p2293
asVbenihanas
p2294
(lp2295
g43
aVI2
p2296
ag28
ag19
ag16
aVA:
p2297
ag28
ag31
ag40
asVfifty
p2298
(lp2299
g3
ag19
ag3
ag27
ag45
asVbright
p2300
(lp2301
g43
ag36
aVaI
p2302
ag27
asVspaces
p2303
(lp2304
g11
ag13
aVeI
p2305
ag11
aVI2
p2306
ag40
asVcorner
p2307
(lp2308
g22
aVO@
p2309
ag28
ag33
asVmolars
p2310
(lp2311
g24
aVoU
p2312
ag5
ag33
ag40
asVlabel
p2313
(lp2314
g5
aVeI
p2315
ag43
aV@L
p2316
asVhustler
p2317
(lp2318
g16
ag44
ag11
ag5
ag33
asVground
p2319
(lp2320
g54
ag36
aVaU
p2321
ag28
ag32
asVaint
p2322
(lp2323
VeI
p2324
ag28
ag27
asVslow
p2325
(lp2326
g11
ag5
aVoU
p2327
asVdice
p2328
(lp2329
g32
aVaI
p2330
ag11
asVdick
p2331
(lp2332
g32
ag19
ag22
asVoutside
p2333
(lp2334
VaU
p2335
ag27
ag11
aVaI
p2336
ag32
asVcrime
p2337
(lp2338
g22
ag36
aVaI
p2339
ag24
asVotis
p2340
(lp2341
VoU
p2342
ag27
ag19
ag11
asVtears
p2343
(lp2344
g27
aVi@3
p2345
ag40
asVgoing
p2346
(lp2347
g54
aVoU
p2348
ag19
ag18
asVblack
p2349
(lp2350
g43
ag5
ag17
ag22
asVinterstate
p2351
(lp2352
g19
ag28
ag27
ag33
ag11
ag27
aVeI
p2353
ag27
asVget
p2354
(lp2355
g54
ag84
ag27
asVcannon
p2356
(lp2357
g22
ag17
ag28
ag31
ag28
asVdiamonds
p2358
(lp2359
g32
aVaI@
p2360
ag24
ag31
ag28
ag32
ag40
asVged
p2361
(lp2362
VdZ
p2363
ag84
ag32
asVcryin
p2364
(lp2365
g22
ag36
aVaI
p2366
ag19
ag28
asVcharentes
p2367
(lp2368
VtS
p2369
ag17
ag36
ag84
ag28
ag27
ag11
asVleather
p2370
(lp2371
g5
ag84
ag114
ag33
asVyoull
p2372
(lp2373
g81
aVaU
p2374
ag5
asVdramas
p2375
(lp2376
g32
ag36
aVA:
p2377
ag24
ag31
ag40
asVborrow
p2378
(lp2379
g43
ag108
ag36
aVoU
p2380
asVmiles
p2381
(lp2382
g24
aVaI
p2383
ag5
ag40
asVclowns
p2384
(lp2385
g22
ag5
aVaU
p2386
ag28
ag40
asVdough
p2387
(lp2388
g32
aVoU
p2389
asVwhere
p2390
(lp2391
g61
aVe@
p2392
asVinside
p2393
(lp2394
g19
ag28
ag11
aVaI
p2395
ag32
asVvision
p2396
(lp2397
g85
ag19
aVZ
p2398
ag31
ag28
asVseat
p2399
(lp2400
g11
aVi:
p2401
ag27
asVcologne
p2402
(lp2403
g22
ag31
ag5
aVoU
p2404
ag28
asVcollege
p2405
(lp2406
g22
ag108
ag5
aVI2
p2407
aVdZ
p2408
asVhoes
p2409
(lp2410
g16
aVoU
p2411
ag40
asVsurgery
p2412
(lp2413
g11
aV3:
p2414
aVdZ
p2415
ag31
ag36
ag45
asVaroused
p2416
(lp2417
Va#
p2418
ag36
aVaU
p2419
ag40
ag32
asVcouldda
p2420
(lp2421
g22
ag92
ag32
ag31
asVencouraged
p2422
(lp2423
g84
ag18
ag22
ag44
ag36
aVI2
p2424
aVdZ
p2425
ag32
asVfarmers
p2426
(lp2427
g3
aVA@
p2428
ag24
ag33
ag40
asVways
p2429
(lp2430
g61
aVeI
p2431
ag40
asVits
p2432
(lp2433
g19
ag27
ag11
asVweapons
p2434
(lp2435
g61
ag84
ag13
ag31
ag28
ag40
asVpump
p2436
(lp2437
g13
ag44
ag24
ag13
asVcomplexion
p2438
(lp2439
g22
ag31
ag24
ag13
ag5
ag84
ag22
ag74
ag31
ag28
asVbetween
p2440
(lp2441
g43
aVI2
p2442
ag27
ag61
aVi:
p2443
ag28
asVkillin
p2444
(lp2445
g22
ag19
ag5
aVI2
p2446
ag28
asVacross
p2447
(lp2448
g31
ag22
ag36
ag108
ag11
asVuh
p2449
(lp2450
g44
asVcorridors
p2451
(lp2452
g22
ag108
ag36
ag19
ag32
aVo@
p2453
ag40
asVkool
p2454
(lp2455
g22
aVu:
p2456
ag5
asVoriginated
p2457
(lp2458
g31
ag36
ag19
aVdZ
p2459
aVI2
p2460
ag28
aVeI
p2461
ag27
aVI2
p2462
ag32
asVdome
p2463
(lp2464
g32
aVoU
p2465
ag24
asVspark
p2466
(lp2467
g11
ag13
aVA@
p2468
ag22
asVcome
p2469
(lp2470
g22
ag44
ag24
asVcoupons
p2471
(lp2472
g22
aVu:
p2473
ag13
ag108
ag28
ag40
asVacquiring
p2474
(lp2475
Va#
p2476
ag22
ag61
aVaI@
p2477
ag36
ag19
ag18
asVbouncin
p2478
(lp2479
g43
aVaU
p2480
ag28
ag11
ag19
ag28
asVmona
p2481
(lp2482
g24
aVoU
p2483
ag28
ag31
asVmany
p2484
(lp2485
g24
ag84
ag28
ag45
asVdedicate
p2486
(lp2487
g32
ag84
ag32
aVI2
p2488
ag22
aVeI
p2489
ag27
asVmillionaire
p2490
(lp2491
g24
ag19
ag5
aVi@
p2492
ag28
aVe@
p2493
asVflipped
p2494
(lp2495
g3
ag5
ag19
ag13
ag27
asVcomes
p2496
(lp2497
g22
ag44
ag24
ag40
asVfortyfour
p2498
(lp2499
g3
aVO@
p2500
ag27
ag19
ag3
aVo@
p2501
asVpot
p2502
(lp2503
g13
ag108
ag27
asVpop
p2504
(lp2505
g13
ag108
ag13
asVslain
p2506
(lp2507
g11
ag5
aVeI
p2508
ag28
asVgrants
p2509
(lp2510
g54
ag36
aVaa
p2511
ag28
ag27
ag11
asVpolo
p2512
(lp2513
g13
aVoU
p2514
ag5
aVoU
p2515
asVboat
p2516
(lp2517
g43
aVoU
p2518
ag27
asVturkey
p2519
(lp2520
g27
aV3:
p2521
ag22
ag45
asVsurvivors
p2522
(lp2523
g11
ag33
ag85
aVaI
p2524
ag85
ag33
ag40
asVsess
p2525
(lp2526
g11
ag84
ag11
asVunderworld
p2527
(lp2528
g44
ag28
ag32
ag33
ag61
aV3:
p2529
ag5
ag32
asVporsche
p2530
(lp2531
g13
aVo@
p2532
ag74
asVhollowtips
p2533
(lp2534
g16
ag108
ag5
aVoU
p2535
ag27
ag19
ag13
ag11
asVwess
p2536
(lp2537
g61
ag84
ag11
asVmary
p2538
(lp2539
g24
aVe@
p2540
ag36
ag45
asVoffered
p2541
(lp2542
g108
ag3
ag33
ag32
asVphotos
p2543
(lp2544
g3
aVoU
p2545
ag27
aVoU
p2546
ag40
asVwake
p2547
(lp2548
g61
aVeI
p2549
ag22
asVspirit
p2550
(lp2551
g11
ag13
ag19
ag36
ag19
ag27
asVthose
p2552
(lp2553
g114
aVoU
p2554
ag40
asVrunnin
p2555
(lp2556
g36
ag44
ag28
ag19
ag28
asVmyself
p2557
(lp2558
g24
aVaI
p2559
ag11
ag84
ag5
ag3
asVfiends
p2560
(lp2561
g3
aVi:
p2562
ag28
ag32
ag40
asVstacked
p2563
(lp2564
g11
ag27
ag17
ag22
ag27
asVthese
p2565
(lp2566
g114
aVi:
p2567
ag40
asVdumdums
p2568
(lp2569
g32
ag44
ag24
ag32
ag31
ag24
ag40
asVcash
p2570
(lp2571
g22
ag17
ag74
asVtrick
p2572
(lp2573
g27
ag36
ag19
ag22
asVstacker
p2574
(lp2575
g11
ag27
ag17
ag22
ag33
asVratchet
p2576
(lp2577
g36
ag17
aVtS
p2578
aVI2
p2579
ag27
asVcock
p2580
(lp2581
g22
ag108
ag22
asVive
p2582
(lp2583
VaI
p2584
ag85
asVvest
p2585
(lp2586
g85
ag84
ag11
ag27
asVmagnifico
p2587
(lp2588
g24
ag17
ag54
ag28
ag19
ag3
aVI2
p2589
ag22
aVoU
p2590
asVpurse
p2591
(lp2592
g13
aV3:
p2593
ag11
asVattachin
p2594
(lp2595
Va#
p2596
ag27
ag17
aVtS
p2597
ag19
ag28
asVgood
p2598
(lp2599
g54
ag92
ag32
asVminds
p2600
(lp2601
g24
aVaI
p2602
ag28
ag32
ag40
asVsomebody
p2603
(lp2604
g11
ag44
ag24
ag43
ag108
ag32
ag45
asVthrills
p2605
(lp2606
g63
ag36
ag19
ag5
ag40
asVsippin
p2607
(lp2608
g11
ag19
ag13
ag19
ag28
asVsellin
p2609
(lp2610
g11
ag84
ag5
aVI2
p2611
ag28
asVpay
p2612
(lp2613
g13
aVeI
p2614
asVthinkin
p2615
(lp2616
g63
ag19
ag18
ag22
ag19
ag28
asVsame
p2617
(lp2618
g11
aVeI
p2619
ag24
asVmarys
p2620
(lp2621
g24
aVe@
p2622
ag36
ag45
ag40
asVya
p2623
(lp2624
g81
aVa#
p2625
asVmotherfuckin
p2626
(lp2627
g24
ag44
ag114
ag31
ag3
ag44
ag22
ag19
ag28
asVfofo
p2628
(lp2629
g3
aVoU
p2630
ag3
aVoU
p2631
asVweek
p2632
(lp2633
g61
aVi:
p2634
ag22
asVfinish
p2635
(lp2636
g3
ag19
ag28
ag19
ag74
asVdriver
p2637
(lp2638
g32
ag36
aVaI
p2639
ag85
ag33
asVweed
p2640
(lp2641
g61
aVi:
p2642
ag32
asVrunning
p2643
(lp2644
g36
ag44
ag28
ag19
ag18
asVbarber
p2645
(lp2646
g43
aVA@
p2647
ag43
ag33
asVdisown
p2648
(lp2649
g32
aVI2
p2650
ag11
aVoU
p2651
ag28
asVnothin
p2652
(lp2653
g28
ag44
ag63
ag19
ag28
asVamounts
p2654
(lp2655
Va#
p2656
ag24
aVaU
p2657
ag28
ag27
ag11
asVwithout
p2658
(lp2659
g61
ag19
ag114
aVaU
p2660
ag27
asVbottle
p2661
(lp2662
g43
ag108
ag27
aV@L
p2663
asVbodies
p2664
(lp2665
g43
ag108
ag32
ag45
ag40
asVcharged
p2666
(lp2667
VtS
p2668
aVA@
p2669
aVdZ
p2670
ag32
asVsummer
p2671
(lp2672
g11
ag44
ag24
ag33
asVthey
p2673
(lp2674
g114
aVeI
p2675
asVmoney
p2676
(lp2677
g24
ag44
ag28
ag45
asVrest
p2678
(lp2679
g36
ag84
ag11
ag27
asVkill
p2680
(lp2681
g22
ag19
ag5
asVwifey
p2682
(lp2683
g61
aVaI
p2684
ag3
ag45
asVkilo
p2685
(lp2686
g22
aVi:
p2687
ag5
aVoU
p2688
asVtouch
p2689
(lp2690
g27
ag44
aVtS
p2691
asVflavor
p2692
(lp2693
g3
ag5
aVeI
p2694
ag85
ag33
asVsatin
p2695
(lp2696
g11
ag17
ag27
ag19
ag28
asVblow
p2697
(lp2698
g43
ag5
aVoU
p2699
asVrover
p2700
(lp2701
g36
aVoU
p2702
ag85
ag33
asVsixteen
p2703
(lp2704
g11
ag19
ag22
ag11
ag27
aVi:
p2705
ag28
asVdipped
p2706
(lp2707
g32
ag19
ag13
ag27
asVrose
p2708
(lp2709
g36
aVoU
p2710
ag40
asVseems
p2711
(lp2712
g11
aVi:
p2713
ag24
ag40
asVsmugglers
p2714
(lp2715
g11
ag24
ag44
ag54
ag5
ag33
ag40
asVsportin
p2716
(lp2717
g11
ag13
aVo@
p2718
ag27
ag19
ag28
asVpile
p2719
(lp2720
g13
aVaI
p2721
ag5
asVbank
p2722
(lp2723
g43
ag17
ag18
ag22
asVstruck
p2724
(lp2725
g11
ag27
ag36
ag44
ag22
asVbread
p2726
(lp2727
g43
ag36
ag84
ag32
asVross
p2728
(lp2729
g36
ag108
ag11
asVgrip
p2730
(lp2731
g54
ag36
ag19
ag13
asVjake
p2732
(lp2733
VdZ
p2734
aVeI
p2735
ag22
asVzion
p2736
(lp2737
g40
aVaI@
p2738
ag28
asVaround
p2739
(lp2740
Va#
p2741
ag36
aVaU
p2742
ag28
ag32
asVkills
p2743
(lp2744
g22
ag19
ag5
ag40
asVrules
p2745
(lp2746
g36
aVu:
p2747
ag5
ag40
asVdocks
p2748
(lp2749
g32
ag108
ag22
ag11
asVsums
p2750
(lp2751
g11
ag44
ag24
ag40
asVgonna
p2752
(lp2753
g54
ag31
ag28
ag31
asVearly
p2754
(lp2755
V3:
p2756
ag5
ag19
asVhopin
p2757
(lp2758
g16
ag108
ag13
ag19
ag28
asVmom
p2759
(lp2760
g24
ag108
ag24
asVworld
p2761
(lp2762
g61
aV3:
p2763
ag5
ag32
asVlady
p2764
(lp2765
g5
aVeI
p2766
ag32
ag45
asVgrim
p2767
(lp2768
g54
ag36
ag19
ag24
asVrear
p2769
(lp2770
g36
aVi@3
p2771
asVfortune
p2772
(lp2773
g3
aVO@
p2774
aVtS
p2775
aVu:
p2776
ag28
asVstranger
p2777
(lp2778
g11
ag27
ag36
aVeI
p2779
ag28
aVdZ
p2780
ag33
asVchamber
p2781
(lp2782
VtS
p2783
aVeI
p2784
ag24
ag43
ag33
asVgimme
p2785
(lp2786
g54
ag19
ag24
ag45
asVnose
p2787
(lp2788
g28
aVoU
p2789
ag40
asVrobbery
p2790
(lp2791
g36
ag108
ag43
ag31
ag36
ag45
asVoffenders
p2792
(lp2793
g31
ag3
ag84
ag28
ag32
ag33
ag40
asVtwelve
p2794
(lp2795
g27
ag61
ag84
ag5
ag85
asVjewellery
p2796
(lp2797
VdZ
p2798
aVu:
p2799
ag31
ag5
ag36
ag45
asVcompetition
p2800
(lp2801
g22
ag108
ag24
ag13
ag31
ag27
ag19
ag74
ag31
ag28
asVkings
p2802
(lp2803
g22
ag19
ag18
ag40
asVplayin
p2804
(lp2805
g13
ag5
aVeI
p2806
ag19
ag28
asVcaribbean
p2807
(lp2808
g22
ag17
ag36
ag31
ag43
aVi@
p2809
ag28
asVslick
p2810
(lp2811
g11
ag5
ag19
ag22
asVlegal
p2812
(lp2813
g5
aVi:
p2814
ag54
aV@L
p2815
asVexit
p2816
(lp2817
g84
ag54
ag40
ag19
ag27
asVknife
p2818
(lp2819
g28
aVaI
p2820
ag3
asVhustle
p2821
(lp2822
g16
ag44
ag11
aV@L
p2823
asVbusiness
p2824
(lp2825
g43
ag19
ag40
ag28
ag31
ag11
asVmarchin
p2826
(lp2827
g24
aVA@
p2828
aVtS
p2829
ag19
ag28
asVthrow
p2830
(lp2831
g63
ag36
aVoU
p2832
asVon
p2833
(lp2834
g108
ag28
asVstone
p2835
(lp2836
g11
ag27
aVoU
p2837
ag28
asVace
p2838
(lp2839
VeI
p2840
ag11
asVoh
p2841
(lp2842
VoU
p2843
asVof
p2844
(lp2845
g108
ag85
asVoe
p2846
(lp2847
VoU
p2848
asVviolence
p2849
(lp2850
g85
aVaI@
p2851
ag5
ag31
ag28
ag11
asVcrocs
p2852
(lp2853
g22
ag36
ag108
ag22
ag11
asVstand
p2854
(lp2855
g11
ag27
ag17
ag28
ag32
asVpockets
p2856
(lp2857
g13
ag108
ag22
aVI2
p2858
ag27
ag11
asVact
p2859
(lp2860
g17
ag22
ag27
asVassassin
p2861
(lp2862
Va#
p2863
ag11
ag17
ag11
ag19
ag28
asVos
p2864
(lp2865
VoU
p2866
ag84
ag11
asVor
p2867
(lp2868
VO@
p2869
asVroad
p2870
(lp2871
g36
aVoU
p2872
ag32
asVracehorses
p2873
(lp2874
g36
aVeI
p2875
ag11
ag16
aVO@
p2876
ag11
aVI2
p2877
ag40
asVladies
p2878
(lp2879
g5
aVeI
p2880
ag32
ag45
ag40
asVwhites
p2881
(lp2882
g61
aVaI
p2883
ag27
ag11
asV\u000a
p2884
(lp2885
S'\n'
p2886
asVcartiers
p2887
(lp2888
g22
aVA@
p2889
ag27
aVi@3
p2890
ag40
asVaccounts
p2891
(lp2892
Va#
p2893
ag22
aVaU
p2894
ag28
ag27
ag11
asVstrip
p2895
(lp2896
g11
ag27
ag36
ag19
ag13
asVuptown
p2897
(lp2898
g44
ag13
ag27
aVaU
p2899
ag28
asVyour
p2900
(lp2901
g81
aVO@
p2902
asVfill
p2903
(lp2904
g3
ag19
ag5
asVweight
p2905
(lp2906
g61
aVeI
p2907
ag27
asVher
p2908
(lp2909
g16
aV3:
p2910
asVshells
p2911
(lp2912
g74
ag84
ag5
ag40
asVsprees
p2913
(lp2914
g11
ag13
ag36
aVi:
p2915
ag40
asVgleam
p2916
(lp2917
g54
ag5
aVi:
p2918
ag24
asVthere
p2919
(lp2920
g114
aVe@
p2921
asVhey
p2922
(lp2923
g16
aVeI
p2924
asVstart
p2925
(lp2926
g11
ag27
aVA@
p2927
ag27
asVcats
p2928
(lp2929
g22
ag17
ag27
ag11
asVlow
p2930
(lp2931
g5
aVoU
p2932
asVlot
p2933
(lp2934
g5
ag108
ag27
asVimmaculate
p2935
(lp2936
g19
ag24
ag17
ag22
ag81
ag92
ag5
ag31
ag27
asVyah
p2937
(lp2938
g81
aVA:
p2939
asVhomeboys
p2940
(lp2941
g16
aVoU
p2942
ag24
ag43
aVOI
p2943
ag40
asVenough
p2944
(lp2945
VI2
p2946
ag28
ag44
ag3
asVlane
p2947
(lp2948
g5
aVeI
p2949
ag28
asVcabinet
p2950
(lp2951
g22
ag17
ag43
aVI2
p2952
ag28
ag31
ag27
asVbeginners
p2953
(lp2954
g43
ag19
ag54
ag19
ag28
ag33
ag40
asVforeheads
p2955
(lp2956
g3
aVO@
p2957
ag16
ag84
ag32
ag40
asVcatchin
p2958
(lp2959
g22
ag17
aVtS
p2960
ag19
ag28
asVmice
p2961
(lp2962
g24
aVaI
p2963
ag11
asVtrying
p2964
(lp2965
g27
ag36
aVaI
p2966
ag19
ag18
asVwith
p2967
(lp2968
g61
ag19
ag114
asVfaster
p2969
(lp2970
g3
aVaa
p2971
ag11
ag27
ag33
asVpull
p2972
(lp2973
g13
ag92
ag5
asVhire
p2974
(lp2975
g16
aVaI@
p2976
asVbullet
p2977
(lp2978
g43
ag92
ag5
ag19
ag27
asVrage
p2979
(lp2980
g36
aVeI
p2981
aVdZ
p2982
asVtellin
p2983
(lp2984
g27
ag84
ag5
aVI2
p2985
ag28
asVdirty
p2986
(lp2987
g32
aV3:
p2988
ag27
ag45
asVtrips
p2989
(lp2990
g27
ag36
ag19
ag13
ag11
asVgone
p2991
(lp2992
g54
ag108
ag28
asVak
p2993
(lp2994
g17
ag22
asVmoved
p2995
(lp2996
g24
aVu:
p2997
ag85
ag32
asVal
p2998
(lp2999
g17
ag5
asVdeep
p3000
(lp3001
g32
aVi:
p3002
ag13
asVan
p3003
(lp3004
g17
ag28
asVas
p3005
(lp3006
g17
ag40
asVsenses
p3007
(lp3008
g11
ag84
ag28
ag11
aVI2
p3009
ag40
asVat
p3010
(lp3011
g17
ag27
asVwalks
p3012
(lp3013
g61
aVO:
p3014
ag22
ag11
asVay
p3015
(lp3016
VaI
p3017
asVwatched
p3018
(lp3019
g61
ag108
aVtS
p3020
ag27
asVhorse
p3021
(lp3022
g16
aVO@
p3023
ag11
asVoperation
p3024
(lp3025
g108
ag13
ag33
ag36
aVeI
p3026
ag74
ag31
ag28
asVcream
p3027
(lp3028
g22
ag36
aVi:
p3029
ag24
asVagain
p3030
(lp3031
Va#
p3032
ag54
ag84
ag28
asVyoga
p3033
(lp3034
g81
aVoU
p3035
ag54
ag31
asVantenna
p3036
(lp3037
g17
ag28
ag27
ag84
ag28
ag31
asVrubber
p3038
(lp3039
g36
ag44
ag43
ag33
asVtight
p3040
(lp3041
g27
aVaI
p3042
ag27
asVyou
p3043
(lp3044
g81
aVu:
p3045
asVharp
p3046
(lp3047
g16
aVA@
p3048
ag13
asVsuites
p3049
(lp3050
g11
ag61
aVi:
p3051
ag27
ag11
asVkeepin
p3052
(lp3053
g22
aVi:
p3054
ag13
ag19
ag28
asVimportant
p3055
(lp3056
g19
ag24
ag13
aVo@
p3057
ag27
ag31
ag28
ag27
asVpirahnas
p3058
(lp3059
g13
aV3:
p3060
ag36
aVA:
p3061
ag28
ag31
ag40
asVtorches
p3062
(lp3063
g27
aVo@
p3064
aVtS
p3065
aVI2
p3066
ag40
asVstocks
p3067
(lp3068
g11
ag27
ag108
ag22
ag11
asVtricks
p3069
(lp3070
g27
ag36
ag19
ag22
ag11
asVsmooch
p3071
(lp3072
g11
ag24
aVu:
p3073
aVtS
p3074
asVcurvy
p3075
(lp3076
g22
aV3:
p3077
ag85
ag45
asVstarting
p3078
(lp3079
g11
ag27
aVA@
p3080
ag27
ag19
ag18
asVrepresent
p3081
(lp3082
g36
ag84
ag13
ag36
aVI2
p3083
ag40
ag84
ag28
ag27
asVall
p3084
(lp3085
VO:
p3086
ag5
asVdiss
p3087
(lp3088
g32
ag19
ag11
asVforget
p3089
(lp3090
g3
ag33
ag54
ag84
ag27
asVwreath
p3091
(lp3092
g36
aVi:
p3093
ag63
asVdollar
p3094
(lp3095
g32
ag108
ag5
ag33
asVabit
p3096
(lp3097
g17
ag43
ag19
ag27
asVfollow
p3098
(lp3099
g3
ag108
ag5
aVoU
p3100
asVchattin
p3101
(lp3102
VtS
p3103
ag17
ag27
ag19
ag28
asVchain
p3104
(lp3105
VtS
p3106
aVeI
p3107
ag28
asVnines
p3108
(lp3109
g28
aVaI
p3110
ag28
ag40
asVimma
p3111
(lp3112
g19
ag24
ag17
asVwassup
p3113
(lp3114
g61
ag31
ag74
ag44
ag13
asVmisses
p3115
(lp3116
g24
ag19
ag11
aVI2
p3117
ag40
asVto
p3118
(lp3119
g27
aVu:
p3120
asValvarez
p3121
(lp3122
g17
ag5
ag85
ag31
ag36
ag84
ag40
asVdressing
p3123
(lp3124
g32
ag36
ag84
ag11
ag19
ag18
asVhealth
p3125
(lp3126
g16
ag84
ag5
ag63
asVta
p3127
(lp3128
g27
aVA:
p3129
asVcase
p3130
(lp3131
g22
aVeI
p3132
ag11
asVsong
p3133
(lp3134
g11
ag108
ag18
asVvery
p3135
(lp3136
g85
ag84
ag36
ag45
asVfat
p3137
(lp3138
g3
ag17
ag27
asVpuzzles
p3139
(lp3140
g13
ag44
ag40
aV@L
p3141
ag40
asVdecide
p3142
(lp3143
g32
aVI2
p3144
ag11
aVaI
p3145
ag32
asVfam
p3146
(lp3147
g3
ag17
ag24
asVsony
p3148
(lp3149
g11
aVoU
p3150
ag28
ag45
asVtrippin
p3151
(lp3152
g27
ag36
ag19
ag13
ag19
ag28
asVoneal
p3153
(lp3154
g61
ag108
ag28
aV@L
p3155
asVlouis
p3156
(lp3157
g5
aVu:
p3158
ag45
asVheist
p3159
(lp3160
g16
aVaI
p3161
ag11
ag27
asVjoined
p3162
(lp3163
VdZ
p3164
aVOI
p3165
ag28
ag32
asVlarge
p3166
(lp3167
g5
aVA@
p3168
aVdZ
p3169
asVsmall
p3170
(lp3171
g11
ag24
aVO:
p3172
ag5
asVlisa
p3173
(lp3174
g5
aVi:
p3175
ag11
ag31
asVsmith
p3176
(lp3177
g11
ag24
ag19
ag63
asVflick
p3178
(lp3179
g3
ag5
ag19
ag22
asVentourage
p3180
(lp3181
g108
ag28
ag27
ag92
ag36
aVA:
p3182
ag2398
asVhumongous
p3183
(lp3184
g16
ag81
aVu:
p3185
ag24
ag44
ag18
ag54
ag31
ag11
asVquicker
p3186
(lp3187
g22
ag61
ag19
ag22
ag33
asVneighborhood
p3188
(lp3189
g28
aVeI
p3190
ag43
ag33
ag16
ag92
ag32
asVten
p3191
(lp3192
g27
ag84
ag28
asVtec
p3193
(lp3194
g27
ag84
ag22
asVsmithnwes
p3195
(lp3196
g11
ag24
ag19
ag63
ag28
ag61
ag19
ag40
asVpast
p3197
(lp3198
g13
aVaa
p3199
ag11
ag27
asVburger
p3200
(lp3201
g43
aV3:
p3202
ag54
ag33
asVzero
p3203
(lp3204
g40
aVi@
p3205
ag36
aVoU
p3206
asVlawyer
p3207
(lp3208
g5
aVOI
p3209
ag33
asVnba
p3210
(lp3211
g84
ag28
ag43
aVi:
p3212
ag1000
aVeI
p3213
asVcigars
p3214
(lp3215
g11
aVI2
p3216
ag54
aVA@
p3217
ag40
asVberetta
p3218
(lp3219
g43
ag84
ag36
ag84
ag27
ag31
asVtussle
p3220
(lp3221
g27
ag44
ag11
aV@L
p3222
asVbrackets
p3223
(lp3224
g43
ag36
ag17
ag22
aVI2
p3225
ag27
ag11
asVspendin
p3226
(lp3227
g11
ag13
ag84
ag28
ag32
ag19
ag28
asVlearned
p3228
(lp3229
g5
aV3:
p3230
ag28
ag32
asVwrecker
p3231
(lp3232
g36
ag84
ag22
ag33
asVguns
p3233
(lp3234
g54
ag44
ag28
ag40
asVfull
p3235
(lp3236
g3
ag92
ag5
asVhours
p3237
(lp3238
VaU
p3239
ag33
ag40
asVranger
p3240
(lp3241
g36
aVeI
p3242
ag28
aVdZ
p3243
ag33
asVkillings
p3244
(lp3245
g22
ag19
ag5
ag19
ag18
ag40
asVwitcha
p3246
(lp3247
g61
ag19
aVtS
p3248
ag31
asVtrunk
p3249
(lp3250
g27
ag36
ag44
ag18
ag22
asVstrong
p3251
(lp3252
g11
ag27
ag36
ag108
ag18
asVlegend
p3253
(lp3254
g5
ag84
aVdZ
p3255
ag31
ag28
ag32
asV
p3256
(lp3257
g17
asVsoldier
p3258
(lp3259
g11
aVoU
p3260
ag5
aVdZ
p3261
ag33
asVamount
p3262
(lp3263
Va#
p3264
ag24
aVaU
p3265
ag28
ag27
asVpick
p3266
(lp3267
g13
ag19
ag22
asVaction
p3268
(lp3269
g17
ag22
ag74
ag31
ag28
asVluck
p3270
(lp3271
g5
ag44
ag22
asVmedics
p3272
(lp3273
g24
ag84
ag32
ag19
ag22
ag11
asVsticking
p3274
(lp3275
g11
ag27
ag19
ag22
ag19
ag18
asVrootin
p3276
(lp3277
g36
aVu:
p3278
ag27
ag19
ag28
asVlimos
p3279
(lp3280
g5
ag19
ag24
aVoU
p3281
ag40
asVfamily
p3282
(lp3283
g3
ag17
ag24
ag19
ag5
ag45
asVscreens
p3284
(lp3285
g11
ag22
ag36
aVi:
p3286
ag28
ag40
asVask
p3287
(lp3288
Vaa
p3289
ag11
ag22
asVvip
p3290
(lp3291
g85
ag19
ag13
asVswingin
p3292
(lp3293
g11
ag61
ag19
ag18
ag54
ag19
ag28
asVtoys
p3294
(lp3295
g27
aVOI
p3296
ag40
asVcasket
p3297
(lp3298
g22
aVaa
p3299
ag11
ag22
aVI2
p3300
ag27
asVeye
p3301
(lp3302
VaI
p3303
asVtwo
p3304
(lp3305
g27
aVu:
p3306
asVcliquo
p3307
(lp3308
g22
ag5
ag19
ag22
ag61
aVoU
p3309
asVmori
p3310
(lp3311
g24
aVO@
p3312
ag36
ag45
asVtacky
p3313
(lp3314
g27
ag17
ag22
ag45
asVmore
p3315
(lp3316
g24
aVo@
p3317
asVflat
p3318
(lp3319
g3
ag5
ag17
ag27
asVdiamond
p3320
(lp3321
g32
aVaI@
p3322
ag24
ag31
ag28
ag32
asVdoor
p3323
(lp3324
g32
aVo@
p3325
asVknows
p3326
(lp3327
g28
aVoU
p3328
ag40
asVmelon
p3329
(lp3330
g24
ag84
ag5
ag31
ag28
asVfloyd
p3331
(lp3332
g3
ag5
aVOI
p3333
ag32
asVstick
p3334
(lp3335
g11
ag27
ag19
ag22
asVbroke
p3336
(lp3337
g43
ag36
aVoU
p3338
ag22
asVknown
p3339
(lp3340
g28
aVoU
p3341
ag28
asVglad
p3342
(lp3343
g54
ag5
ag17
ag32
asVtown
p3344
(lp3345
g27
aVaU
p3346
ag28
asVgrill
p3347
(lp3348
g54
ag36
ag19
ag5
asVnone
p3349
(lp3350
g28
ag108
ag28
asVpataki
p3351
(lp3352
g13
ag17
ag27
ag17
ag22
ag45
asVnine
p3353
(lp3354
g28
aVaI
p3355
ag28
asVwaiters
p3356
(lp3357
g61
aVeI
p3358
ag27
ag33
ag40
asVknocked
p3359
(lp3360
g28
ag108
ag22
ag27
asVsapphires
p3361
(lp3362
g11
ag17
ag3
aVaI@
p3363
ag40
asVcompare
p3364
(lp3365
g22
ag31
ag24
ag13
aVe@
p3366
asVbrown
p3367
(lp3368
g43
ag36
aVaU
p3369
ag28
asVhandshakesll
p3370
(lp3371
g16
ag17
ag28
ag32
ag74
aVeI
p3372
ag22
ag11
ag5
aV@L
p3373
asVstates
p3374
(lp3375
g11
ag27
aVeI
p3376
ag27
ag11
asVnumbers
p3377
(lp3378
g28
ag44
ag24
ag43
ag33
ag40
asVsense
p3379
(lp3380
g11
ag84
ag28
ag11
asVdress
p3381
(lp3382
g32
ag36
ag84
ag11
asVhomicide
p3383
(lp3384
g16
ag108
ag24
ag19
ag11
aVaI
p3385
ag32
asVhuge
p3386
(lp3387
g16
ag81
aVu:
p3388
aVdZ
p3389
asVharrys
p3390
(lp3391
g16
ag17
ag36
ag45
ag40
asVcocking
p3392
(lp3393
g22
ag108
ag22
ag19
ag18
asVbreaking
p3394
(lp3395
g43
ag36
aVeI
p3396
ag22
ag19
ag18
asVstayed
p3397
(lp3398
g11
ag27
aVeI
p3399
ag32
asVfame
p3400
(lp3401
g3
aVeI
p3402
ag24
asVglowing
p3403
(lp3404
g54
ag5
aVoU
p3405
ag19
ag18
asVfreshly
p3406
(lp3407
g3
ag36
ag84
ag74
ag5
ag45
asVbentleys
p3408
(lp3409
g43
ag84
ag28
ag27
ag5
ag45
ag40
asVplottin
p3410
(lp3411
g13
ag5
ag108
ag27
ag19
ag28
asVtried
p3412
(lp3413
g27
ag36
aVaI
p3414
ag32
asVcharms
p3415
(lp3416
VtS
p3417
aVA@
p3418
ag24
ag40
asVblood
p3419
(lp3420
g43
ag5
ag44
ag32
asVnumb
p3421
(lp3422
g28
ag44
ag24
asVcoming
p3423
(lp3424
g22
ag44
ag24
aVI2
p3425
ag18
asVfo
p3426
(lp3427
g3
aVoU
p3428
asg17
(lp3429
VeI
p3430
asVgrands
p3431
(lp3432
g54
ag36
ag17
ag28
ag32
ag40
asVmorphine
p3433
(lp3434
g24
aVO@
p3435
ag3
aVi:
p3436
ag28
asVcoat
p3437
(lp3438
g22
aVoU
p3439
ag27
asVstash
p3440
(lp3441
g11
ag27
ag17
ag74
asVdeuces
p3442
(lp3443
g32
ag81
aVu:
p3444
ag11
aVI2
p3445
ag40
asVmislead
p3446
(lp3447
g24
aVI2
p3448
ag11
ag5
aVi:
p3449
ag32
asVgrinnin
p3450
(lp3451
g54
ag36
ag19
ag28
ag19
ag28
asVmethadone
p3452
(lp3453
g24
ag84
ag63
aVa#
p3454
ag32
aVoU
p3455
ag28
asVdream
p3456
(lp3457
g32
ag36
aVi:
p3458
ag24
asVplaying
p3459
(lp3460
g13
ag5
aVeI
p3461
ag19
ag18
asVchicks
p3462
(lp3463
VtS
p3464
ag19
ag22
ag11
asVhelp
p3465
(lp3466
g16
ag84
ag5
ag13
asVgauges
p3467
(lp3468
g54
aVeI
p3469
aVdZ
p3470
aVI2
p3471
ag40
asVessence
p3472
(lp3473
g84
ag11
ag31
ag28
ag11
asVninetys
p3474
(lp3475
g28
aVaI
p3476
ag28
ag27
ag45
ag40
asVmission
p3477
(lp3478
g24
ag19
ag74
ag31
ag28
asVattitude
p3479
(lp3480
g17
ag27
ag19
ag27
ag81
aVu:
p3481
ag32
asVpaper
p3482
(lp3483
g13
aVeI
p3484
ag13
ag33
asVthrough
p3485
(lp3486
g63
ag36
aVu:
p3487
asVhell
p3488
(lp3489
g16
ag84
ag5
asVsuffer
p3490
(lp3491
g11
ag44
ag3
ag33
asVtrouble
p3492
(lp3493
g27
ag36
ag44
ag43
aV@L
p3494
asVfoxy
p3495
(lp3496
g3
ag108
ag22
ag11
ag45
asVstyle
p3497
(lp3498
g11
ag27
aVaI
p3499
ag5
asVshotty
p3500
(lp3501
g74
ag108
ag27
ag45
asVglide
p3502
(lp3503
g54
ag5
aVaI
p3504
ag32
asVchasin
p3505
(lp3506
VtS
p3507
ag17
ag11
ag19
ag28
asVlate
p3508
(lp3509
g5
aVeI
p3510
ag27
asVdolly
p3511
(lp3512
g32
ag108
ag5
ag45
asVbout
p3513
(lp3514
g43
aVaU
p3515
ag27
asVmight
p3516
(lp3517
g24
aVaI
p3518
ag27
asVfiner
p3519
(lp3520
g3
aVaI
p3521
ag28
ag33
asVevening
p3522
(lp3523
Vi:
p3524
ag85
ag28
ag19
ag18
asVreturn
p3525
(lp3526
g36
aVI2
p3527
ag27
aV3:
p3528
ag28
asVyo
p3529
(lp3530
g81
aVoU
p3531
asVfood
p3532
(lp3533
g3
aVu:
p3534
ag32
asVunits
p3535
(lp3536
g81
aVu:
p3537
ag28
ag19
ag27
ag11
asVvomit
p3538
(lp3539
g85
ag108
ag24
ag19
ag27
asVfoot
p3540
(lp3541
g3
ag92
ag27
asVbigger
p3542
(lp3543
g43
ag19
ag54
ag33
asVeasily
p3544
(lp3545
Vi:
p3546
ag40
ag45
ag5
ag45
asVgets
p3547
(lp3548
g54
ag84
ag27
ag11
asVpregnant
p3549
(lp3550
g13
ag36
ag84
ag54
ag28
ag31
ag28
ag27
asValways
p3551
(lp3552
VO:
p3553
ag5
ag61
aVeI
p3554
ag40
asVsalarys
p3555
(lp3556
g11
ag17
ag5
ag31
ag36
ag45
ag40
asVbless
p3557
(lp3558
g43
ag5
ag84
ag11
asVfound
p3559
(lp3560
g3
aVaU
p3561
ag28
ag32
asVheavy
p3562
(lp3563
g16
ag84
ag85
ag45
asVanother
p3564
(lp3565
Va#
p3566
ag28
ag44
ag114
ag33
asVstickups
p3567
(lp3568
g11
ag27
ag19
ag22
ag44
ag13
ag11
asVhouse
p3569
(lp3570
g16
aVaU
p3571
ag11
asVfish
p3572
(lp3573
g3
ag19
ag74
asVhard
p3574
(lp3575
g16
aVA@
p3576
ag32
asVfoxes
p3577
(lp3578
g3
ag108
ag22
ag11
aVI2
p3579
ag40
asVbrother
p3580
(lp3581
g43
ag36
ag44
ag114
ag33
asVextended
p3582
(lp3583
g84
ag22
ag11
ag27
ag84
ag28
ag32
aVI2
p3584
ag32
asVconnect
p3585
(lp3586
g22
ag31
ag28
ag84
ag22
ag27
asVblues
p3587
(lp3588
g43
ag5
aVu:
p3589
ag40
asVbalance
p3590
(lp3591
g43
ag17
ag5
ag31
ag28
ag11
asVreally
p3592
(lp3593
g36
aVi@
p3594
ag5
ag19
asVtry
p3595
(lp3596
g27
ag36
aVaI
p3597
asVlipstick
p3598
(lp3599
g5
ag19
ag13
ag11
ag27
ag19
ag22
asVgunnin
p3600
(lp3601
g54
ag44
ag28
ag19
ag28
asVtrooper
p3602
(lp3603
g27
ag36
aVu:
p3604
ag13
ag33
asVsince
p3605
(lp3606
g11
ag19
ag28
ag11
asVacting
p3607
(lp3608
g17
ag22
ag27
ag19
ag18
asVcrackajack
p3609
(lp3610
g22
ag36
ag17
ag22
aVa#
p3611
aVdZ
p3612
ag17
ag22
asVhill
p3613
(lp3614
g16
ag19
ag5
asVparadise
p3615
(lp3616
g13
ag17
ag36
ag31
ag32
aVaI
p3617
ag11
asVsalute
p3618
(lp3619
g11
ag31
ag5
aVu:
p3620
ag27
asVass
p3621
(lp3622
g17
ag11
asVslangin
p3623
(lp3624
g11
ag5
ag17
ag18
ag54
ag19
ag28
asVbelief
p3625
(lp3626
g43
aVI2
p3627
ag5
aVi:
p3628
ag3
asVdirt
p3629
(lp3630
g32
aV3:
p3631
ag27
asVmotherfucker
p3632
(lp3633
g24
ag44
ag114
ag31
ag3
ag44
ag22
ag33
asVpub
p3634
(lp3635
g13
ag44
ag43
asVreason
p3636
(lp3637
g36
aVi:
p3638
ag40
ag31
ag28
asVheroin
p3639
(lp3640
g16
ag84
ag36
aVoU
p3641
ag19
ag28
asVmembers
p3642
(lp3643
g24
ag84
ag24
ag43
ag33
ag40
asVput
p3644
(lp3645
g13
ag92
ag27
asVash
p3646
(lp3647
g17
ag74
asVbeginning
p3648
(lp3649
g43
ag19
ag54
ag19
ag28
ag19
ag18
asVsidewalk
p3650
(lp3651
g11
aVaI
p3652
ag32
ag61
aVO:
p3653
ag22
asVcookin
p3654
(lp3655
g22
ag92
ag22
ag19
ag28
asVdefinition
p3656
(lp3657
g32
ag84
ag3
ag19
ag28
ag19
ag74
ag31
ag28
asVamerican
p3658
(lp3659
Va#
p3660
ag24
ag84
ag36
ag19
ag22
ag31
ag28
asVthreat
p3661
(lp3662
g63
ag36
ag84
ag27
asVcastle
p3663
(lp3664
g22
aVaa
p3665
ag11
aV@L
p3666
asVknots
p3667
(lp3668
g28
ag108
ag27
ag11
asVmajor
p3669
(lp3670
g24
aVeI
p3671
aVdZ
p3672
ag33
asVdont
p3673
(lp3674
g32
aVoU
p3675
ag28
ag27
asVslipped
p3676
(lp3677
g11
ag5
ag19
ag13
ag27
asVfeel
p3678
(lp3679
g3
aVi:
p3680
ag5
asVkingpin
p3681
(lp3682
g22
ag19
ag18
ag13
ag19
ag28
asVnumber
p3683
(lp3684
g28
ag44
ag24
ag43
ag33
asVfeet
p3685
(lp3686
g3
aVi:
p3687
ag27
asVdone
p3688
(lp3689
g32
ag44
ag28
asVwages
p3690
(lp3691
g61
aVeI
p3692
aVdZ
p3693
aVI2
p3694
ag40
asVglitter
p3695
(lp3696
g54
ag5
ag19
ag27
ag33
asVrazor
p3697
(lp3698
g36
aVeI
p3699
ag40
ag33
asVstory
p3700
(lp3701
g11
ag27
aVo@
p3702
ag36
ag45
asVgrimm
p3703
(lp3704
g54
ag36
ag19
ag24
asVjet
p3705
(lp3706
VdZ
p3707
ag84
ag27
asVscript
p3708
(lp3709
g11
ag22
ag36
ag19
ag13
ag27
asVtwenty
p3710
(lp3711
g27
ag61
ag84
ag28
ag27
ag45
asVgrowner
p3712
(lp3713
g54
ag36
aVoU
p3714
ag28
ag33
asVleast
p3715
(lp3716
g5
aVi:
p3717
ag11
ag27
asVpaint
p3718
(lp3719
g13
aVeI
p3720
ag28
ag27
asVstorm
p3721
(lp3722
g11
ag27
aVo@
p3723
ag24
asVgrimy
p3724
(lp3725
g54
ag36
aVaI
p3726
ag24
ag45
asVmama
p3727
(lp3728
g24
ag17
ag24
aVa#
p3729
asVscheme
p3730
(lp3731
g11
ag22
aVi:
p3732
ag24
asVbanana
p3733
(lp3734
g43
aVa#
p3735
ag28
aVA:
p3736
ag28
ag31
asVstore
p3737
(lp3738
g11
ag27
aVo@
p3739
asVjacuzzis
p3740
(lp3741
VdZ
p3742
ag31
ag22
aVu:
p3743
ag40
ag45
ag40
asVexploded
p3744
(lp3745
g84
ag22
ag11
ag13
ag5
aVoU
p3746
ag32
aVI2
p3747
ag32
asVneedle
p3748
(lp3749
g28
aVi:
p3750
ag32
aV@L
p3751
asVluckily
p3752
(lp3753
g5
ag44
ag22
ag45
ag5
ag45
asVpart
p3754
(lp3755
g13
aVA@
p3756
ag27
asVdoctors
p3757
(lp3758
g32
ag108
ag22
ag27
ag33
ag40
asVbelieve
p3759
(lp3760
g43
aVI2
p3761
ag5
aVi:
p3762
ag85
asVking
p3763
(lp3764
g22
ag19
ag18
asVhundred
p3765
(lp3766
g16
ag44
ag28
ag32
ag36
aVI2
p3767
ag32
asVincision
p3768
(lp3769
g19
ag28
ag11
ag19
ag2398
ag31
ag28
asVdouble
p3770
(lp3771
g32
ag44
ag43
aV@L
p3772
asVmarriage
p3773
(lp3774
g24
ag17
ag36
aVI2
p3775
aVdZ
p3776
asVsupposed
p3777
(lp3778
g11
ag31
ag13
aVoU
p3779
ag40
ag32
asVsister
p3780
(lp3781
g11
ag19
ag11
ag27
ag33
asVcloudy
p3782
(lp3783
g22
ag5
aVaU
p3784
ag32
ag45
asVrisky
p3785
(lp3786
g36
ag19
ag11
ag22
ag45
asVexecutioner
p3787
(lp3788
g84
ag22
ag11
ag19
ag22
ag81
aVu:
p3789
ag74
ag31
ag28
ag33
asVoutta
p3790
(lp3791
VaU
p3792
ag27
ag31
asVwasnt
p3793
(lp3794
g61
ag108
ag11
ag28
ag27
asVmurder
p3795
(lp3796
g24
aV3:
p3797
ag32
ag33
asVbackseat
p3798
(lp3799
g43
ag17
ag22
ag11
aVi:
p3800
ag27
asVnights
p3801
(lp3802
g28
aVaI
p3803
ag27
ag11
asVdoberman
p3804
(lp3805
g32
aVoU
p3806
ag43
ag33
ag24
ag31
ag28
asVstim
p3807
(lp3808
g11
ag27
ag19
ag24
asVbreeze
p3809
(lp3810
g43
ag36
aVi:
p3811
ag40
asVbuild
p3812
(lp3813
g43
ag19
ag5
ag32
asVwaitin
p3814
(lp3815
g61
aVeI
p3816
ag27
ag19
ag28
asVplay
p3817
(lp3818
g13
ag5
aVeI
p3819
asVsleepin
p3820
(lp3821
g11
ag5
aVi:
p3822
ag13
ag19
ag28
asVcapillaries
p3823
(lp3824
g22
ag17
ag13
ag19
ag5
ag31
ag36
ag45
ag40
asVmost
p3825
(lp3826
g24
aVoU
p3827
ag11
ag27
asVbrooklyn
p3828
(lp3829
g43
ag36
ag92
ag22
ag5
ag19
ag28
asVplan
p3830
(lp3831
g13
ag5
ag17
ag28
asVnothing
p3832
(lp3833
g28
ag44
ag63
ag19
ag18
asVmack
p3834
(lp3835
g24
ag17
ag22
asVkiddies
p3836
(lp3837
g22
ag19
ag32
ag19
ag40
asVgrams
p3838
(lp3839
g54
ag36
ag17
ag24
ag40
asVwindows
p3840
(lp3841
g61
ag19
ag28
ag32
aVoU
p3842
ag40
asVclear
p3843
(lp3844
g22
ag5
aVi@3
p3845
asVsometimes
p3846
(lp3847
g11
ag44
ag24
ag27
aVaI
p3848
ag24
ag40
asVcover
p3849
(lp3850
g22
ag44
ag85
ag33
asVbustin
p3851
(lp3852
g43
ag44
ag11
ag27
ag19
ag28
asVdestruct
p3853
(lp3854
g32
aVI2
p3855
ag11
ag27
ag36
ag44
ag22
ag27
asVamazed
p3856
(lp3857
Va#
p3858
ag24
aVeI
p3859
ag40
ag32
asVku
p3860
(lp3861
g22
aVu:
p3862
asVbarrel
p3863
(lp3864
g43
ag17
ag36
aV@L
p3865
asVsector
p3866
(lp3867
g11
ag84
ag22
ag27
ag33
asVthink
p3868
(lp3869
g63
ag19
ag18
ag22
asVgold
p3870
(lp3871
g54
aVoU
p3872
ag5
ag32
asVstuffin
p3873
(lp3874
g11
ag27
ag44
ag3
ag19
ag28
asVbooze
p3875
(lp3876
g43
aVu:
p3877
ag40
asVrelation
p3878
(lp3879
g36
aVI2
p3880
ag5
aVeI
p3881
ag74
ag31
ag28
asVfelon
p3882
(lp3883
g3
ag84
ag5
ag31
ag28
asVhopped
p3884
(lp3885
g16
ag108
ag13
ag27
asVheavens
p3886
(lp3887
g16
ag84
ag85
ag31
ag28
ag40
asVfind
p3888
(lp3889
g3
aVaI
p3890
ag28
ag32
asVcollectin
p3891
(lp3892
g22
ag31
ag5
ag84
ag22
ag27
ag19
ag28
asVnorthern
p3893
(lp3894
g28
aVO@
p3895
ag114
ag33
ag28
asVgrazed
p3896
(lp3897
g54
ag36
aVeI
p3898
ag40
ag32
asVpoppin
p3899
(lp3900
g13
ag108
ag13
ag19
ag28
asVpretty
p3901
(lp3902
g13
ag36
ag19
ag27
ag45
asVfiend
p3903
(lp3904
g3
aVi:
p3905
ag28
ag32
asVhip
p3906
(lp3907
g16
ag19
ag13
asVhis
p3908
(lp3909
g16
ag19
ag40
asVhit
p3910
(lp3911
g16
ag19
ag27
asVfreaks
p3912
(lp3913
g3
ag36
aVi:
p3914
ag22
ag11
asVfamous
p3915
(lp3916
g3
aVeI
p3917
ag24
ag31
ag11
asVsilk
p3918
(lp3919
g11
ag19
ag5
ag22
asVpimp
p3920
(lp3921
g13
ag19
ag24
ag13
asVsyringes
p3922
(lp3923
g11
aVI2
p3924
ag36
ag19
ag28
aVdZ
p3925
aVI2
p3926
ag40
asVcontagious
p3927
(lp3928
g22
ag31
ag28
ag27
aVeI
p3929
aVdZ
p3930
ag31
ag11
asVcry
p3931
(lp3932
g22
ag36
aVaI
p3933
asVretaliation
p3934
(lp3935
g36
aVI2
p3936
ag27
ag17
ag5
ag19
ag1000
aVeI
p3937
ag74
ag31
ag28
asVdoubled
p3938
(lp3939
g32
ag44
ag43
aV@L
p3940
ag32
asVhype
p3941
(lp3942
g16
aVaI
p3943
ag13
asVx
p3944
(lp3945
g84
ag22
ag11
asVriver
p3946
(lp3947
g36
ag19
ag85
ag33
asVwrote
p3948
(lp3949
g36
aVoU
p3950
ag27
asVtoasters
p3951
(lp3952
g27
aVoU
p3953
ag11
ag27
ag33
ag40
asVinsane
p3954
(lp3955
g19
ag28
ag11
aVeI
p3956
ag28
asVseventeen
p3957
(lp3958
g11
ag84
ag85
ag31
ag28
ag27
aVi:
p3959
ag28
asVset
p3960
(lp3961
g11
ag84
ag27
asVpotent
p3962
(lp3963
g13
aVoU
p3964
ag27
ag31
ag28
ag27
asVboochi
p3965
(lp3966
g43
aVu:
p3967
aVtS
p3968
aVaI
p3969
asVsee
p3970
(lp3971
g11
aVi:
p3972
asVare
p3973
(lp3974
VA@
p3975
asVsea
p3976
(lp3977
g11
aVi:
p3978
asVclose
p3979
(lp3980
g22
ag5
aVoU
p3981
ag11
asVtiffanys
p3982
(lp3983
g27
ag19
ag3
ag31
ag28
ag45
ag40
asVarm
p3984
(lp3985
VA@
p3986
ag24
asVlearnt
p3987
(lp3988
g5
aV3:
p3989
ag28
ag27
asVmovie
p3990
(lp3991
g24
aVu:
p3992
ag85
ag45
asVklux
p3993
(lp3994
g22
ag5
ag44
ag22
ag11
asVprobably
p3995
(lp3996
g13
ag36
ag108
ag43
ag31
ag43
ag5
ag45
asVchampagne
p3997
(lp3998
g74
ag17
ag24
ag13
aVeI
p3999
ag28
asVwatchin
p4000
(lp4001
g61
ag108
aVtS
p4002
ag19
ag28
asVsolo
p4003
(lp4004
g11
aVoU
p4005
ag5
aVoU
p4006
asVqueers
p4007
(lp4008
g22
ag61
aVi@3
p4009
ag40
asVzipped
p4010
(lp4011
g40
ag19
ag13
ag27
asVoutfit
p4012
(lp4013
VaU
p4014
ag27
ag3
ag19
ag27
asVdeath
p4015
(lp4016
g32
ag84
ag63
asVcondo
p4017
(lp4018
g22
ag108
ag28
ag32
aVoU
p4019
asVlyrical
p4020
(lp4021
g5
ag19
ag36
ag19
ag22
aV@L
p4022
asVtorchin
p4023
(lp4024
g27
aVo@
p4025
ag22
ag19
ag28
asVlast
p4026
(lp4027
g5
aVaa
p4028
ag11
ag27
asVtootin
p4029
(lp4030
g27
aVu:
p4031
ag27
ag19
ag28
asVbarely
p4032
(lp4033
g43
aVe@
p4034
ag5
ag45
asVromas
p4035
(lp4036
g36
aVoU
p4037
ag24
ag31
ag40
asVbecame
p4038
(lp4039
g43
ag19
ag22
aVeI
p4040
ag24
asVwhole
p4041
(lp4042
g16
aVoU
p4043
ag5
asVload
p4044
(lp4045
g5
aVoU
p4046
ag32
asVbell
p4047
(lp4048
g43
ag84
ag5
asVsimple
p4049
(lp4050
g11
ag19
ag24
ag13
aV@L
p4051
asVsweet
p4052
(lp4053
g11
ag61
aVi:
p4054
ag27
asVsmashing
p4055
(lp4056
g11
ag24
ag17
ag74
ag19
ag18
asVsimply
p4057
(lp4058
g11
ag19
ag24
ag13
ag5
ag45
asVlikes
p4059
(lp4060
g5
aVaI
p4061
ag22
ag11
asVchurch
p4062
(lp4063
VtS
p4064
aV3:
p4065
aVtS
p4066
asVbelt
p4067
(lp4068
g43
ag84
ag5
ag27
asVdevil
p4069
(lp4070
g32
ag84
ag85
aV@L
p4071
asVraise
p4072
(lp4073
g36
aVeI
p4074
ag40
asVglocks
p4075
(lp4076
g54
ag5
ag108
ag22
ag11
asVpa
p4077
(lp4078
g13
aVA:
p4079
asVdamn
p4080
(lp4081
g32
ag17
ag24
asVcoarse
p4082
(lp4083
g22
aVo@
p4084
ag11
asVbrick
p4085
(lp4086
g43
ag36
ag19
ag22
asVterritory
p4087
(lp4088
g27
ag84
ag36
ag19
ag27
ag31
ag36
ag45
asVempty
p4089
(lp4090
g84
ag24
ag13
ag27
ag45
asVdame
p4091
(lp4092
g32
aVeI
p4093
ag24
asVbuck
p4094
(lp4095
g43
ag44
ag22
asVfire
p4096
(lp4097
g3
aVaI@
p4098
asVcrack
p4099
(lp4100
g22
ag36
ag17
ag22
asVspttin
p4101
(lp4102
g84
ag11
ag13
aVi:
p4103
ag27
aVi:
p4104
ag27
ag19
ag28
asVelse
p4105
(lp4106
g84
ag5
ag11
asVraces
p4107
(lp4108
g36
aVeI
p4109
ag11
aVI2
p4110
ag40
asVunderstand
p4111
(lp4112
g44
ag28
ag32
ag33
ag11
ag27
ag17
ag28
ag32
asVsixes
p4113
(lp4114
g11
ag19
ag22
ag11
aVI2
p4115
ag40
asVstolen
p4116
(lp4117
g11
ag27
aVoU
p4118
ag5
ag31
ag28
asVthirty
p4119
(lp4120
g63
aV3:
p4121
ag27
ag45
asVstraight
p4122
(lp4123
g11
ag27
ag36
aVeI
p4124
ag27
asVpace
p4125
(lp4126
g13
aVeI
p4127
ag11
asVwhile
p4128
(lp4129
g61
aVaI
p4130
ag5
asVbarricade
p4131
(lp4132
g43
ag17
ag36
ag19
ag22
aVeI
p4133
ag32
asVleaning
p4134
(lp4135
g5
aVi:
p4136
ag28
ag19
ag18
asVfleet
p4137
(lp4138
g3
ag5
aVi:
p4139
ag27
asVloot
p4140
(lp4141
g5
aVu:
p4142
ag27
asVtheres
p4143
(lp4144
g114
ag33
ag40
asVreal
p4145
(lp4146
g36
aVi@
p4147
ag5
asVsmacked
p4148
(lp4149
g11
ag24
ag17
ag22
ag27
asVgangstas
p4150
(lp4151
g54
ag17
ag18
ag11
ag27
ag31
ag40
asVrip
p4152
(lp4153
g36
ag19
ag13
asVninetynineth
p4154
(lp4155
g28
aVaI
p4156
ag28
ag27
ag19
ag28
aVaI
p4157
ag28
ag31
ag63
asVtriple
p4158
(lp4159
g27
ag36
ag19
ag13
aV@L
p4160
asVseen
p4161
(lp4162
g11
aVi:
p4163
ag28
asVready
p4164
(lp4165
g36
ag84
ag32
ag45
asVrid
p4166
(lp4167
g36
ag19
ag32
asVchase
p4168
(lp4169
VtS
p4170
aVeI
p4171
ag11
asVfunny
p4172
(lp4173
g3
ag44
ag28
ag45
asVshortee
p4174
(lp4175
g74
aVO@
p4176
ag27
aVi:
p4177
asVbelong
p4178
(lp4179
g43
aVI2
p4180
ag5
ag108
ag18
asVread
p4181
(lp4182
g36
aVi:
p4183
ag32
asVgrand
p4184
(lp4185
g54
ag36
ag17
ag28
ag32
asVitchy
p4186
(lp4187
g19
aVtS
p4188
ag45
asVslanging
p4189
(lp4190
g11
ag5
ag17
ag18
ag19
ag18
asVused
p4191
(lp4192
g81
aVu:
p4193
ag40
ag32
asVdime
p4194
(lp4195
g32
aVaI
p4196
ag24
asVyesterday
p4197
(lp4198
g81
ag84
ag11
ag27
ag33
ag32
aVeI
p4199
asVflows
p4200
(lp4201
g3
ag5
aVoU
p4202
ag40
asValert
p4203
(lp4204
Va#
p4205
ag5
aV3:
p4206
ag27
asVmurderin
p4207
(lp4208
g24
aV3:
p4209
ag32
ag33
ag36
ag19
ag28
asVpurpose
p4210
(lp4211
g13
aV3:
p4212
ag13
ag31
ag11
asVstack
p4213
(lp4214
g11
ag27
ag17
ag22
asVziplock
p4215
(lp4216
g40
ag19
ag13
ag5
ag108
ag22
asVstarver
p4217
(lp4218
g11
ag27
aVA@
p4219
ag85
ag33
asVdark
p4220
(lp4221
g32
aVA@
p4222
ag22
asVolder
p4223
(lp4224
VoU
p4225
ag5
ag32
ag33
asVcheek
p4226
(lp4227
VtS
p4228
aVi:
p4229
ag22
asVswiss
p4230
(lp4231
g11
ag61
ag19
ag11
asVsawedoff
p4232
(lp4233
g11
aVO:
p4234
ag32
ag108
ag3
asVspend
p4235
(lp4236
g11
ag13
ag84
ag28
ag32
asVperico
p4237
(lp4238
g13
ag84
ag36
aVI2
p4239
ag22
aVoU
p4240
asVhobbes
p4241
(lp4242
g16
ag108
ag43
ag40
asVmob
p4243
(lp4244
g24
ag108
ag43
asVprince
p4245
(lp4246
g13
ag36
ag19
ag28
ag11
asVtables
p4247
(lp4248
g27
aVeI
p4249
ag43
aV@L
p4250
ag40
asVcut
p4251
(lp4252
g22
ag44
ag27
asVthreex
p4253
(lp4254
g63
ag36
aVi:
p4255
ag22
ag11
asVcup
p4256
(lp4257
g22
ag44
ag13
asVworkers
p4258
(lp4259
g61
aV3:
p4260
ag22
ag33
ag40
asVswinger
p4261
(lp4262
g11
ag61
ag19
ag18
ag54
ag33
asVduct
p4263
(lp4264
g32
ag44
ag22
ag27
asVcrying
p4265
(lp4266
g22
ag36
aVaI
p4267
ag19
ag18
asVlurkin
p4268
(lp4269
g5
aV3:
p4270
ag22
ag19
ag28
asVeightys
p4271
(lp4272
VeI
p4273
ag27
ag45
ag40
asVsurprised
p4274
(lp4275
g11
ag33
ag13
ag36
aVaI
p4276
ag40
ag32
asVwobblin
p4277
(lp4278
g61
ag108
ag43
ag5
ag19
ag28
asVbig
p4279
(lp4280
g43
ag19
ag54
asVcouple
p4281
(lp4282
g22
ag44
ag13
aV@L
p4283
asVsittin
p4284
(lp4285
g11
ag19
ag27
ag19
ag28
asVgame
p4286
(lp4287
g54
aVeI
p4288
ag24
asVbiz
p4289
(lp4290
g43
ag19
ag40
asVprivate
p4291
(lp4292
g13
ag36
aVaI
p4293
ag85
ag31
ag27
asVtowel
p4294
(lp4295
g27
aVaU
p4296
aV@L
p4297
asVwings
p4298
(lp4299
g61
ag19
ag18
ag40
asVknock
p4300
(lp4301
g28
ag108
ag22
asVsemi
p4302
(lp4303
g11
ag84
ag24
ag45
asVceelo
p4304
(lp4305
g11
aVi:
p4306
ag5
aVoU
p4307
asVmessage
p4308
(lp4309
g24
ag84
ag11
aVI2
p4310
aVdZ
p4311
asVcollect
p4312
(lp4313
g22
ag31
ag5
ag84
ag22
ag27
asVoften
p4314
(lp4315
g108
ag3
ag31
ag28
asVfucking
p4316
(lp4317
g3
ag44
ag22
ag19
ag18
asVsome
p4318
(lp4319
g11
ag44
ag24
asVback
p4320
(lp4321
g43
ag17
ag22
asVbounce
p4322
(lp4323
g43
aVaU
p4324
ag28
ag11
asVlips
p4325
(lp4326
g5
ag19
ag13
ag11
asVclown
p4327
(lp4328
g22
ag5
aVaU
p4329
ag28
asVsight
p4330
(lp4331
g11
aVaI
p4332
ag27
asVmirror
p4333
(lp4334
g24
ag19
ag36
ag33
asVmustang
p4335
(lp4336
g24
ag44
ag11
ag27
ag17
ag18
asVwesson
p4337
(lp4338
g61
ag84
ag11
ag31
ag28
asVsavage
p4339
(lp4340
g11
ag17
ag85
aVI2
p4341
aVdZ
p4342
asVchumps
p4343
(lp4344
VtS
p4345
ag44
ag24
ag13
ag11
asVsheen
p4346
(lp4347
g74
aVi:
p4348
ag28
asVdecision
p4349
(lp4350
g32
aVI2
p4351
ag11
ag19
ag2398
ag31
ag28
asVpros
p4352
(lp4353
g13
ag36
aVoU
p4354
ag40
asVreligion
p4355
(lp4356
g36
aVI2
p4357
ag5
ag19
aVdZ
p4358
ag31
ag28
asVslash
p4359
(lp4360
g11
ag5
ag17
ag74
asVfragments
p4361
(lp4362
g3
ag36
ag17
ag54
ag24
ag31
ag28
ag27
ag11
asVrappers
p4363
(lp4364
g36
ag17
ag13
ag33
ag40
asVfopound
p4365
(lp4366
g3
ag108
ag13
aVaU
p4367
ag28
ag32
asVbe
p4368
(lp4369
g43
aVi:
p4370
asVrun
p4371
(lp4372
g36
ag44
ag28
asVnitti
p4373
(lp4374
g28
ag19
ag27
ag45
asVremembered
p4375
(lp4376
g36
aVI2
p4377
ag24
ag84
ag24
ag43
ag33
ag32
asVbm
p4378
(lp4379
g43
aVi:
p4380
ag1000
ag84
ag24
asVodor
p4381
(lp4382
VoU
p4383
ag32
ag33
asVlaker
p4384
(lp4385
g5
aVeI
p4386
ag22
ag33
asVslowfast
p4387
(lp4388
g11
ag5
aVoU
p4389
ag3
aVaa
p4390
ag11
ag27
asVzombie
p4391
(lp4392
g40
ag108
ag24
ag43
ag45
asVstep
p4393
(lp4394
g11
ag27
ag84
ag13
asVbecome
p4395
(lp4396
g43
ag19
ag22
ag44
ag24
asVfrom
p4397
(lp4398
g3
ag36
ag108
ag24
asVby
p4399
(lp4400
g43
aVaI
p4401
asVshine
p4402
(lp4403
g74
aVaI
p4404
ag28
asVanything
p4405
(lp4406
g84
ag28
aVI2
p4407
ag63
ag19
ag18
asVcigarette
p4408
(lp4409
g11
ag19
ag54
ag31
ag36
ag84
ag27
asVsurrender
p4410
(lp4411
g11
ag33
ag36
ag84
ag28
ag32
ag33
asVwrinkles
p4412
(lp4413
g36
ag19
ag18
ag22
aV@L
p4414
ag40
asVdrama
p4415
(lp4416
g32
ag36
aVA:
p4417
ag24
ag31
asVrange
p4418
(lp4419
g36
aVeI
p4420
ag28
aVdZ
p4421
asVounce
p4422
(lp4423
VaU
p4424
ag28
ag11
asVwanna
p4425
(lp4426
g61
ag108
ag28
ag31
asVgamma
p4427
(lp4428
g54
ag17
ag24
ag31
asVseeing
p4429
(lp4430
g11
aVi:
p4431
ag1000
ag19
ag18
asVsniffle
p4432
(lp4433
g11
ag28
ag19
ag3
aV@L
p4434
asVmommy
p4435
(lp4436
g24
ag108
ag24
ag45
asVmomma
p4437
(lp4438
g24
ag108
ag24
ag31
asVbecause
p4439
(lp4440
g43
ag19
ag22
ag108
ag40
asVfrog
p4441
(lp4442
g3
ag36
ag108
ag54
asVrows
p4443
(lp4444
g36
aVoU
p4445
ag40
asVfew
p4446
(lp4447
g3
ag81
aVu:
p4448
asVlone
p4449
(lp4450
g5
aVoU
p4451
ag28
asVsneaks
p4452
(lp4453
g11
ag28
aVi:
p4454
ag22
ag11
asVfast
p4455
(lp4456
g3
aVaa
p4457
ag11
ag27
asVbaggy
p4458
(lp4459
g43
ag17
ag54
ag45
asVcommittin
p4460
(lp4461
g22
ag31
ag24
ag19
ag27
ag19
ag28
asVsuit
p4462
(lp4463
g11
aVu:
p4464
ag27
asVforward
p4465
(lp4466
g3
aVO@
p4467
ag61
ag33
ag32
asVscared
p4468
(lp4469
g11
ag22
aVe@
p4470
ag32
asVfiles
p4471
(lp4472
g3
aVaI
p4473
ag5
ag40
asVpimpin
p4474
(lp4475
g13
ag19
ag24
ag13
ag19
ag28
asVtrois
p4476
(lp4477
g27
ag61
aVA:
p4478
asVglamour
p4479
(lp4480
g54
ag5
ag17
ag24
ag33
asVlarry
p4481
(lp4482
g5
ag17
ag36
ag45
asVline
p4483
(lp4484
g5
aVaI
p4485
ag28
asVintestines
p4486
(lp4487
VI2
p4488
ag28
ag27
ag84
ag11
ag27
aVI2
p4489
ag28
ag40
asVeighteen
p4490
(lp4491
VeI
p4492
ag27
aVi:
p4493
ag28
asVup
p4494
(lp4495
g44
ag13
asVus
p4496
(lp4497
g44
ag11
asVclips
p4498
(lp4499
g22
ag5
ag19
ag13
ag11
asVtoday
p4500
(lp4501
g27
ag31
ag32
aVeI
p4502
asVfried
p4503
(lp4504
g3
ag36
aVaI
p4505
ag32
asVhaunt
p4506
(lp4507
g16
aVO:
p4508
ag28
ag27
asVcurb
p4509
(lp4510
g22
aV3:
p4511
ag43
asVrally
p4512
(lp4513
g36
ag17
ag5
ag45
asVcurl
p4514
(lp4515
g22
aV3:
p4516
ag5
asVphantom
p4517
(lp4518
g3
aVaa
p4519
ag28
ag27
ag31
ag24
asVtheyll
p4520
(lp4521
g63
aVeI
p4522
ag5
asVsunken
p4523
(lp4524
g11
ag44
ag18
ag22
ag31
ag28
asVrains
p4525
(lp4526
g36
aVeI
p4527
ag28
ag40
asVnah
p4528
(lp4529
g28
aVA:
p4530
asVbacks
p4531
(lp4532
g43
ag17
ag22
ag11
asVscrape
p4533
(lp4534
g11
ag22
ag36
aVeI
p4535
ag13
asVreindeers
p4536
(lp4537
g36
aVeI
p4538
ag28
ag32
aVi@3
p4539
ag40
asVkirk
p4540
(lp4541
g22
aV3:
p4542
ag22
asVscraps
p4543
(lp4544
g11
ag22
ag36
ag17
ag13
ag11
asVhova
p4545
(lp4546
g16
aVoU
p4547
ag85
ag31
asVnice
p4548
(lp4549
g28
aVaI
p4550
ag11
asVdraw
p4551
(lp4552
g32
ag36
aVO:
p4553
asVpapi
p4554
(lp4555
g13
ag17
ag13
ag45
asVclean
p4556
(lp4557
g22
ag5
aVi:
p4558
ag28
asVsexin
p4559
(lp4560
g11
ag84
ag22
ag11
ag19
ag28
asVvisits
p4561
(lp4562
g85
ag19
ag40
ag19
ag27
ag11
asVluxurious
p4563
(lp4564
g5
ag44
ag54
ag2398
aVU@
p4565
ag36
aVi@
p4566
ag11
asVmeaning
p4567
(lp4568
g24
aVi:
p4569
ag28
ag19
ag18
asVdesert
p4570
(lp4571
g32
ag84
ag40
ag33
ag27
asVrisin
p4572
(lp4573
g36
ag19
ag11
ag19
ag28
asVfighter
p4574
(lp4575
g3
aVaI
p4576
ag27
ag33
asVevilly
p4577
(lp4578
Vi:
p4579
ag85
aV@L
p4580
ag45
asVage
p4581
(lp4582
VeI
p4583
aVdZ
p4584
asVholes
p4585
(lp4586
g16
aVoU
p4587
ag5
ag40
asVhonkajonk
p4588
(lp4589
g16
ag108
ag18
ag22
aVa#
p4590
aVdZ
p4591
ag108
ag18
ag22
asVheats
p4592
(lp4593
g16
aVi:
p4594
ag27
ag11
asVfar
p4595
(lp4596
g3
aVA@
p4597
asVhaving
p4598
(lp4599
g16
ag17
ag85
ag19
ag18
asVonce
p4600
(lp4601
g61
ag44
ag28
ag11
asVgs
p4602
(lp4603
VdZ
p4604
aVi:
p4605
ag1000
ag84
ag11
asVashamed
p4606
(lp4607
Va#
p4608
ag74
aVeI
p4609
ag24
ag32
asVscratch
p4610
(lp4611
g11
ag22
ag36
ag17
aVtS
p4612
asVsteve
p4613
(lp4614
g11
ag27
aVi:
p4615
ag85
asVgang
p4616
(lp4617
g54
ag17
ag18
asVlimousine
p4618
(lp4619
g5
ag19
ag24
ag31
ag40
aVi:
p4620
ag28
asVgo
p4621
(lp4622
g54
aVoU
p4623
asVflashback
p4624
(lp4625
g3
ag5
ag17
ag74
ag43
ag17
ag22
asVchillin
p4626
(lp4627
VtS
p4628
ag19
ag5
aVI2
p4629
ag28
asVissues
p4630
(lp4631
g19
ag74
aVu:
p4632
ag40
asVdames
p4633
(lp4634
g32
aVeI
p4635
ag24
ag40
asVyoung
p4636
(lp4637
g81
ag44
ag18
asVsend
p4638
(lp4639
g11
ag84
ag28
ag32
asVsuits
p4640
(lp4641
g11
aVu:
p4642
ag27
ag11
asVdoes
p4643
(lp4644
g32
ag44
ag40
asVblaze
p4645
(lp4646
g43
ag5
aVeI
p4647
ag40
asVsent
p4648
(lp4649
g11
ag84
ag28
ag27
asVmuzzles
p4650
(lp4651
g24
ag44
ag40
aV@L
p4652
ag40
asVbreathing
p4653
(lp4654
g43
ag36
aVi:
p4655
ag114
ag19
ag18
asVminers
p4656
(lp4657
g24
aVaI
p4658
ag28
ag33
ag40
asVwave
p4659
(lp4660
g61
aVeI
p4661
ag85
asVearrings
p4662
(lp4663
Vi@3
p4664
ag36
ag19
ag18
ag40
asVmixing
p4665
(lp4666
g24
ag19
ag22
ag11
ag19
ag18
asVheckler
p4667
(lp4668
g16
ag84
ag22
ag5
ag33
asVtimely
p4669
(lp4670
g27
aVaI
p4671
ag24
ag5
ag45
asVbutton
p4672
(lp4673
g43
ag44
ag27
ag31
ag28
asVgettin
p4674
(lp4675
g54
ag84
ag27
ag19
ag28
asVdeals
p4676
(lp4677
g32
aVi:
p4678
ag5
ag40
asVrace
p4679
(lp4680
g36
aVeI
p4681
ag11
asVcar
p4682
(lp4683
g22
aVA@
p4684
asVmelodies
p4685
(lp4686
g24
ag84
ag5
ag31
ag32
ag45
ag40
asVrefer
p4687
(lp4688
g36
aVI2
p4689
ag3
aV3:
p4690
asVenforce
p4691
(lp4692
g84
ag28
ag3
aVo@
p4693
ag11
asVdimes
p4694
(lp4695
g32
aVaI
p4696
ag24
ag40
asVsmaller
p4697
(lp4698
g11
ag24
aVO:
p4699
ag5
ag33
asVflashlights
p4700
(lp4701
g3
ag5
ag17
ag74
ag5
aVaI
p4702
ag27
ag11
asVcds
p4703
(lp4704
g11
aVi:
p4705
ag32
aVi:
p4706
ag1000
ag84
ag11
asVjump
p4707
(lp4708
VdZ
p4709
ag44
ag24
ag13
asVfold
p4710
(lp4711
g3
aVoU
p4712
ag5
ag32
asVnoise
p4713
(lp4714
g28
aVOI
p4715
ag40
asVclick
p4716
(lp4717
g22
ag5
ag19
ag22
asVchicago
p4718
(lp4719
g74
aVI2
p4720
ag22
aVA:
p4721
ag54
aVoU
p4722
asVsables
p4723
(lp4724
g11
aVeI
p4725
ag43
aV@L
p4726
ag40
asVrotten
p4727
(lp4728
g36
ag108
ag27
ag31
ag28
asVindian
p4729
(lp4730
g19
ag28
ag32
aVi@
p4731
ag28
asVnicholas
p4732
(lp4733
g28
ag19
ag22
ag31
ag5
ag31
ag11
asVbody
p4734
(lp4735
g43
ag108
ag32
ag45
asVchose
p4736
(lp4737
VtS
p4738
aVoU
p4739
ag40
asVbozos
p4740
(lp4741
g43
aVoU
p4742
ag40
aVoU
p4743
ag40
asVlet
p4744
(lp4745
g5
ag84
ag27
asVfifteen
p4746
(lp4747
g3
ag19
ag3
ag27
aVi:
p4748
ag28
asVloser
p4749
(lp4750
g5
aVu:
p4751
ag40
ag33
asVsayin
p4752
(lp4753
g11
aVeI
p4754
ag19
ag28
asVgreat
p4755
(lp4756
g54
ag36
aVeI
p4757
ag27
asVshades
p4758
(lp4759
g74
aVeI
p4760
ag32
ag40
asVleaving
p4761
(lp4762
g5
aVi:
p4763
ag85
ag19
ag18
asVeatin
p4764
(lp4765
Vi:
p4766
ag27
ag19
ag28
asVxseven
p4767
(lp4768
g84
ag22
ag11
ag11
ag84
ag85
ag31
ag28
asVmakes
p4769
(lp4770
g24
aVeI
p4771
ag22
ag11
asVthats
p4772
(lp4773
g114
ag17
ag27
ag11
asVwig
p4774
(lp4775
g61
ag19
ag54
asVshovel
p4776
(lp4777
g74
ag44
ag85
aV@L
p4778
asVforbid
p4779
(lp4780
g3
ag33
ag43
ag19
ag32
asVwin
p4781
(lp4782
g61
ag19
ag28
asVlimp
p4783
(lp4784
g5
ag19
ag24
ag13
asVclout
p4785
(lp4786
g22
ag5
aVaU
p4787
ag27
asVwit
p4788
(lp4789
g61
ag19
ag27
asVduck
p4790
(lp4791
g32
ag44
ag22
asVpatrol
p4792
(lp4793
g13
aVa#
p4794
ag27
ag36
aVoU
p4795
ag5
asVstanding
p4796
(lp4797
g11
ag27
ag17
ag28
ag32
ag19
ag18
asVstrapped
p4798
(lp4799
g11
ag27
ag36
ag17
ag13
ag27
asVfed
p4800
(lp4801
g3
ag84
ag32
asVcrap
p4802
(lp4803
g22
ag36
ag17
ag13
asVscorchin
p4804
(lp4805
g11
ag22
aVo@
p4806
ag22
ag19
ag28
asVzip
p4807
(lp4808
g40
ag19
ag13
asVrackets
p4809
(lp4810
g36
ag17
ag22
aVI2
p4811
ag27
ag11
asVnext
p4812
(lp4813
g28
ag84
ag22
ag11
ag27
asVeleven
p4814
(lp4815
VI2
p4816
ag5
ag84
ag85
ag31
ag28
asVdoubt
p4817
(lp4818
g32
aVaU
p4819
ag27
asVeagles
p4820
(lp4821
Vi:
p4822
ag54
aV@L
p4823
ag40
asVsort
p4824
(lp4825
g11
aVO@
p4826
ag27
asVpopped
p4827
(lp4828
g13
ag108
ag13
ag27
asVstarted
p4829
(lp4830
g11
ag27
aVA@
p4831
ag27
aVI2
p4832
ag32
asVoccurred
p4833
(lp4834
g31
ag22
aV3:
p4835
ag32
asVlosin
p4836
(lp4837
g5
ag108
ag11
ag19
ag28
asVbaby
p4838
(lp4839
g43
aVeI
p4840
ag43
ag45
asVgladly
p4841
(lp4842
g54
ag5
ag17
ag32
ag5
ag45
asVbackstrokes
p4843
(lp4844
g43
ag17
ag22
ag11
ag27
ag36
aVoU
p4845
ag22
ag11
asVwomen
p4846
(lp4847
g61
ag19
ag24
ag19
ag28
asVwearin
p4848
(lp4849
g61
aVe@
p4850
ag36
ag19
ag28
asVthis
p4851
(lp4852
g114
ag19
ag11
asVride
p4853
(lp4854
g36
aVaI
p4855
ag32
asVpour
p4856
(lp4857
g13
aVo@
p4858
asVcrossed
p4859
(lp4860
g22
ag36
ag108
ag11
ag27
asVthin
p4861
(lp4862
g63
ag19
ag28
asVdrill
p4863
(lp4864
g32
ag36
ag19
ag5
asVaight
p4865
(lp4866
VeI
p4867
ag27
asVmeet
p4868
(lp4869
g24
aVi:
p4870
ag27
asVdidnt
p4871
(lp4872
g32
ag19
ag32
ag28
ag27
asVcoffin
p4873
(lp4874
g22
ag108
ag3
ag19
ag28
asVtap
p4875
(lp4876
g27
ag17
ag13
asVbent
p4877
(lp4878
g43
ag84
ag28
ag27
asVplate
p4879
(lp4880
g13
ag5
aVeI
p4881
ag27
asVpieces
p4882
(lp4883
g13
aVi:
p4884
ag11
aVI2
p4885
ag40
asVhigh
p4886
(lp4887
g16
aVaI
p4888
asVvillain
p4889
(lp4890
g85
ag19
ag5
ag31
ag28
asVscarface
p4891
(lp4892
g11
ag22
aVA@
p4893
ag3
aVeI
p4894
ag11
asVsomething
p4895
(lp4896
g11
ag44
ag24
ag63
ag19
ag18
asVslip
p4897
(lp4898
g11
ag5
ag19
ag13
asVtan
p4899
(lp4900
g27
ag17
ag28
asVmade
p4901
(lp4902
g24
aVeI
p4903
ag32
asVfitteds
p4904
(lp4905
g3
ag19
ag27
aVI2
p4906
ag32
ag40
asVdeader
p4907
(lp4908
g32
ag84
ag32
ag33
asVsurrounded
p4909
(lp4910
g11
ag33
ag36
aVaU
p4911
ag28
ag32
aVI2
p4912
ag32
asVsit
p4913
(lp4914
g11
ag19
ag27
asVsix
p4915
(lp4916
g11
ag19
ag22
ag11
asVrippin
p4917
(lp4918
g36
ag19
ag13
ag19
ag28
asVfortunate
p4919
(lp4920
g3
aVO@
p4921
aVtS
p4922
ag31
ag28
ag31
ag27
asVlamp
p4923
(lp4924
g5
ag17
ag24
ag13
asVinstead
p4925
(lp4926
g19
ag28
ag11
ag27
ag84
ag32
asVdoublebarrel
p4927
(lp4928
g32
ag44
ag43
aV@L
p4929
ag43
ag17
ag36
aV@L
p4930
asVsin
p4931
(lp4932
g11
ag19
ag28
asVstock
p4933
(lp4934
g11
ag27
ag108
ag22
asVwatch
p4935
(lp4936
g61
ag108
aVtS
p4937
asVgraveyards
p4938
(lp4939
g54
ag36
aVeI
p4940
ag85
ag81
aVA@
p4941
ag32
ag40
asVatrapped
p4942
(lp4943
g17
ag27
ag36
ag17
ag13
ag27
asVcabbage
p4944
(lp4945
g22
ag17
ag43
aVI2
p4946
aVdZ
p4947
asVpocket
p4948
(lp4949
g13
ag108
ag22
aVI2
p4950
ag27
asVobjected
p4951
(lp4952
g108
ag43
aVdZ
p4953
ag84
ag22
ag27
aVI2
p4954
ag32
asVlight
p4955
(lp4956
g5
aVaI
p4957
ag27
asVlines
p4958
(lp4959
g5
aVaI
p4960
ag28
ag40
asVlinen
p4961
(lp4962
g5
ag19
ag28
aVI2
p4963
ag28
asVaddiction
p4964
(lp4965
Va#
p4966
ag32
ag19
ag22
ag74
ag31
ag28
asVwildin
p4967
(lp4968
g61
aVaI
p4969
ag5
ag32
ag19
ag28
asVstandin
p4970
(lp4971
g11
ag27
ag17
ag28
ag32
ag19
ag28
asVholds
p4972
(lp4973
g16
aVoU
p4974
ag5
ag32
ag40
asVthigh
p4975
(lp4976
g63
aVaI
p4977
asVsidewalks
p4978
(lp4979
g11
aVaI
p4980
ag32
ag61
aVO:
p4981
ag22
ag11
asVambition
p4982
(lp4983
g17
ag24
ag43
ag19
ag74
ag31
ag28
asVmove
p4984
(lp4985
g24
aVu:
p4986
ag85
asVbrawlin
p4987
(lp4988
g43
ag36
aVO:
p4989
ag5
ag19
ag28
asVantisthetics
p4990
(lp4991
g17
ag28
ag27
ag19
ag11
ag63
ag84
ag27
ag19
ag22
ag11
asVperfect
p4992
(lp4993
g13
aV3:
p4994
ag3
ag84
ag22
ag27
asVla
p4995
(lp4996
g5
ag17
asVperspire
p4997
(lp4998
g13
ag33
ag11
ag13
aVaI@
p4999
asVseashores
p5000
(lp5001
g11
aVi:
p5002
ag74
aVo@
p5003
ag40
asVhim
p5004
(lp5005
g16
ag19
ag24
asVpermanent
p5006
(lp5007
g13
aV3:
p5008
ag24
ag31
ag28
ag31
ag28
ag27
asVrestrain
p5009
(lp5010
g36
aVI2
p5011
ag11
ag27
ag36
aVeI
p5012
ag28
asVyoungster
p5013
(lp5014
g81
ag44
ag18
ag11
ag27
ag33
asVlatitude
p5015
(lp5016
g5
ag17
ag27
ag19
ag27
ag81
aVu:
p5017
ag32
asVcriminal
p5018
(lp5019
g22
ag36
ag19
ag24
ag19
ag28
aV@L
p5020
asVprosper
p5021
(lp5022
g13
ag36
ag108
ag11
ag13
ag33
asVhomocides
p5023
(lp5024
g16
ag108
ag24
ag31
ag11
aVaI
p5025
ag32
ag40
asVkiss
p5026
(lp5027
g22
ag19
ag11
asVfingerprint
p5028
(lp5029
g3
ag19
ag18
ag54
ag33
ag13
ag36
ag19
ag28
ag27
asVfront
p5030
(lp5031
g3
ag36
ag44
ag28
ag27
asVcage
p5032
(lp5033
g22
aVeI
p5034
aVdZ
p5035
asVday
p5036
(lp5037
g32
aVeI
p5038
asVstunts
p5039
(lp5040
g11
ag27
ag44
ag28
ag27
ag11
asVscenic
p5041
(lp5042
g11
aVi:
p5043
ag28
ag19
ag22
asVslide
p5044
(lp5045
g11
ag5
aVaI
p5046
ag32
asVmode
p5047
(lp5048
g24
aVoU
p5049
ag32
asVtruth
p5050
(lp5051
g27
ag36
aVu:
p5052
ag63
asVrising
p5053
(lp5054
g36
aVaI
p5055
ag40
ag19
ag18
asVbills
p5056
(lp5057
g43
ag19
ag5
ag40
asVtraces
p5058
(lp5059
g27
ag36
aVeI
p5060
ag11
aVI2
p5061
ag40
asVmidchapter
p5062
(lp5063
g24
ag19
ag32
aVtS
p5064
ag17
ag13
ag27
ag33
asVtents
p5065
(lp5066
g27
ag84
ag28
ag27
ag11
asVdoing
p5067
(lp5068
g32
aVu:
p5069
ag19
ag18
asVour
p5070
(lp5071
VaU
p5072
ag33
asVout
p5073
(lp5074
VaU
p5075
ag27
asVstuy
p5076
(lp5077
g11
ag27
aVaI
p5078
asVplayground
p5079
(lp5080
g13
ag5
aVeI
p5081
ag54
ag36
aVaU
p5082
ag28
ag32
asVcause
p5083
(lp5084
g22
aVO:
p5085
ag40
asVred
p5086
(lp5087
g36
ag84
ag32
asVwiner
p5088
(lp5089
g61
aVaI
p5090
ag28
ag33
asVfrank
p5091
(lp5092
g3
ag36
ag17
ag18
ag22
asVmolly
p5093
(lp5094
g24
ag108
ag5
ag45
asVfourteen
p5095
(lp5096
g3
aVo@
p5097
ag27
aVi:
p5098
ag28
asVheartbreaker
p5099
(lp5100
g16
aVA@
p5101
ag27
ag43
ag36
aVeI
p5102
ag22
ag33
asVshortys
p5103
(lp5104
g74
aVO@
p5105
ag27
ag45
ag40
asVbleed
p5106
(lp5107
g43
ag5
aVi:
p5108
ag32
asVbackwards
p5109
(lp5110
g43
ag17
ag22
ag61
ag33
ag32
ag40
asVyard
p5111
(lp5112
g81
aVA@
p5113
ag32
asg54
(lp5114
VdZ
p5115
aVi:
p5116
asVspill
p5117
(lp5118
g11
ag13
ag19
ag5
asVroute
p5119
(lp5120
g36
aVu:
p5121
ag27
asVhes
p5122
(lp5123
g16
aVi:
p5124
ag40
asVheartbreaking
p5125
(lp5126
g16
aVA@
p5127
ag27
ag43
ag36
aVeI
p5128
ag22
ag19
ag18
asVtimes
p5129
(lp5130
g27
aVaI
p5131
ag24
ag40
asVdavis
p5132
(lp5133
g32
aVeI
p5134
ag85
ag19
ag11
asVwrist
p5135
(lp5136
g36
ag19
ag11
ag27
asVsouth
p5137
(lp5138
g11
aVaU
p5139
ag63
asVbars
p5140
(lp5141
g43
aVA@
p5142
ag40
asVsack
p5143
(lp5144
g11
ag17
ag22
asVbitch
p5145
(lp5146
g43
ag19
aVtS
p5147
asVblows
p5148
(lp5149
g43
ag5
aVoU
p5150
ag40
asVhas
p5151
(lp5152
g16
ag17
ag40
asVbears
p5153
(lp5154
g43
aVe@
p5155
ag40
asVsystem
p5156
(lp5157
g11
ag19
ag11
ag27
ag31
ag24
asVtheir
p5158
(lp5159
g114
aVe@
p5160
asVtwelvea
p5161
(lp5162
g27
ag61
ag84
ag5
ag85
aVi@
p5163
asVwrapped
p5164
(lp5165
g36
ag17
ag13
ag27
asVcondonk
p5166
(lp5167
g22
ag31
ag28
ag32
ag108
ag18
ag22
asVshell
p5168
(lp5169
g74
ag84
ag5
asVstomach
p5170
(lp5171
g11
ag27
ag44
ag24
ag31
ag22
asVgear
p5172
(lp5173
g54
aVi@3
p5174
asVsomethin
p5175
(lp5176
g11
ag44
ag24
ag63
ag19
ag28
asVnobody
p5177
(lp5178
g28
aVoU
p5179
ag43
ag108
ag32
ag45
asVshorty
p5180
(lp5181
g74
aVO@
p5182
ag27
ag45
asVjada
p5183
(lp5184
VdZ
p5185
aVA:
p5186
ag32
ag31
asVhaven
p5187
(lp5188
g16
aVeI
p5189
ag85
ag31
ag28
asVremember
p5190
(lp5191
g36
aVI2
p5192
ag24
ag84
ag24
ag43
ag33
asVsteel
p5193
(lp5194
g11
ag27
aVi:
p5195
ag5
asVcatered
p5196
(lp5197
g22
aVeI
p5198
ag27
ag33
ag32
asVcolas
p5199
(lp5200
g22
aVoU
p5201
ag5
ag31
ag40
asVriches
p5202
(lp5203
g36
ag19
aVtS
p5204
aVI2
p5205
ag40
asVlion
p5206
(lp5207
g5
aVaI@
p5208
ag28
asVbed
p5209
(lp5210
g43
ag84
ag32
asVhumped
p5211
(lp5212
g16
ag44
ag24
ag13
ag27
asVtwox
p5213
(lp5214
g27
ag61
ag108
ag22
ag11
asVbet
p5215
(lp5216
g43
ag84
ag27
asVhookers
p5217
(lp5218
g16
ag92
ag22
ag33
ag40
asVclockin
p5219
(lp5220
g22
ag5
ag108
ag22
ag19
ag28
asVclip
p5221
(lp5222
g22
ag5
ag19
ag13
asVbeatin
p5223
(lp5224
g43
aVi:
p5225
ag27
ag19
ag28
asVgentle
p5226
(lp5227
VdZ
p5228
ag84
ag28
ag27
aV@L
p5229
asVcorona
p5230
(lp5231
g22
ag31
ag36
aVoU
p5232
ag28
ag31
asVhave
p5233
(lp5234
g16
ag17
ag85
asVborder
p5235
(lp5236
g43
aVo@
p5237
ag32
ag33
asVbastard
p5238
(lp5239
g43
aVaa
p5240
ag11
ag27
ag33
ag32
asVmil
p5241
(lp5242
g24
ag19
ag5
asVable
p5243
(lp5244
VeI
p5245
ag43
aV@L
p5246
asVhangover
p5247
(lp5248
g16
ag17
ag18
ag54
aVoU
p5249
ag85
ag33
asVmix
p5250
(lp5251
g24
ag19
ag22
ag11
asVtruck
p5252
(lp5253
g27
ag36
ag44
ag22
asVbrand
p5254
(lp5255
g43
ag36
ag17
ag28
ag32
asVunless
p5256
(lp5257
g44
ag28
ag5
ag84
ag11
asVwho
p5258
(lp5259
g16
aVu:
p5260
asVdubs
p5261
(lp5262
g32
ag44
ag43
ag40
asVheadcrack
p5263
(lp5264
g16
ag84
ag32
ag22
ag36
ag17
ag22
asVeight
p5265
(lp5266
VeI
p5267
ag27
asVgunners
p5268
(lp5269
g54
ag44
ag28
ag33
ag40
asVgallery
p5270
(lp5271
g54
ag17
ag5
ag31
ag36
ag45
asVlames
p5272
(lp5273
g5
aVeI
p5274
ag24
ag40
asVlined
p5275
(lp5276
g5
aVaI
p5277
ag28
ag32
asVtramps
p5278
(lp5279
g27
ag36
ag17
ag24
ag13
ag11
asVthanksgiving
p5280
(lp5281
g63
ag17
ag18
ag22
ag11
ag54
ag19
ag85
ag19
ag18
asVface
p5282
(lp5283
g3
aVeI
p5284
ag11
asVpipe
p5285
(lp5286
g13
aVaI
p5287
ag13
asVbrew
p5288
(lp5289
g43
ag36
aVu:
p5290
asVwow
p5291
(lp5292
g61
aVaU
p5293
asVimpression
p5294
(lp5295
g19
ag24
ag13
ag36
ag84
ag74
ag31
ag28
asVriffin
p5296
(lp5297
g36
ag19
ag3
ag19
ag28
asVheeeeey
p5298
(lp5299
g16
aVi:
p5300
ag1000
aVi:
p5301
ag1000
ag45
asVbring
p5302
(lp5303
g43
ag36
ag19
ag18
asVparked
p5304
(lp5305
g13
aVA@
p5306
ag22
ag27
asVrough
p5307
(lp5308
g36
ag44
ag3
asVlonger
p5309
(lp5310
g5
ag108
ag18
ag54
ag33
asVbased
p5311
(lp5312
g43
aVeI
p5313
ag11
ag27
asVtire
p5314
(lp5315
g27
aVaI@
p5316
asVblowin
p5317
(lp5318
g43
ag5
aVoU
p5319
ag19
ag28
asVsparks
p5320
(lp5321
g11
ag13
aVA@
p5322
ag22
ag11
asVshould
p5323
(lp5324
g74
ag92
ag32
asVbuttons
p5325
(lp5326
g43
ag44
ag27
ag31
ag28
ag40
asVentities
p5327
(lp5328
g84
ag28
ag27
aVI2
p5329
ag27
ag45
ag40
asVtape
p5330
(lp5331
g27
aVeI
p5332
ag13
asVthousands
p5333
(lp5334
g63
aVaU
p5335
ag40
ag31
ag28
ag32
ag40
asVmeant
p5336
(lp5337
g24
ag84
ag28
ag27
asVhandle
p5338
(lp5339
g16
ag17
ag28
ag32
aV@L
p5340
asVkillas
p5341
(lp5342
g22
ag19
ag5
ag31
ag40
asVjammy
p5343
(lp5344
VdZ
p5345
ag17
ag24
ag45
asVjoint
p5346
(lp5347
VdZ
p5348
aVOI
p5349
ag28
ag27
asVones
p5350
(lp5351
g61
ag108
ag28
ag40
asVwords
p5352
(lp5353
g61
aV3:
p5354
ag32
ag40
asVcrackerjacks
p5355
(lp5356
g22
ag36
ag17
ag22
ag33
aVdZ
p5357
ag17
ag22
ag11
asVchips
p5358
(lp5359
VtS
p5360
ag19
ag13
ag11
asVghetto
p5361
(lp5362
g54
ag84
ag27
aVoU
p5363
asVsmash
p5364
(lp5365
g11
ag24
ag17
ag74
asVscene
p5366
(lp5367
g11
aVi:
p5368
ag28
asVbestest
p5369
(lp5370
g43
ag84
ag11
ag27
ag31
ag11
ag27
asVshy
p5371
(lp5372
g74
aVaI
p5373
asVmarried
p5374
(lp5375
g24
ag17
ag36
ag45
ag32
asVrapper
p5376
(lp5377
g36
ag17
ag13
ag33
asVmeltin
p5378
(lp5379
g24
ag84
ag5
ag27
ag19
ag28
asVslugs
p5380
(lp5381
g11
ag5
ag44
ag54
ag40
asVstuff
p5382
(lp5383
g11
ag27
ag44
ag3
asVshe
p5384
(lp5385
g74
aVi:
p5386
asVfatalities
p5387
(lp5388
g3
aVeI
p5389
ag27
ag17
ag5
aVI2
p5390
ag27
ag45
ag40
asVgrab
p5391
(lp5392
g54
ag36
ag17
ag43
asVview
p5393
(lp5394
g85
ag81
aVu:
p5395
asVjellin
p5396
(lp5397
VdZ
p5398
ag84
ag5
aVI2
p5399
ag28
asVprayers
p5400
(lp5401
g13
ag36
aVe@
p5402
ag40
asVpacker
p5403
(lp5404
g13
ag17
ag22
ag33
asVpuddle
p5405
(lp5406
g13
ag44
ag32
aV@L
p5407
asVfreeze
p5408
(lp5409
g3
ag36
aVi:
p5410
ag40
asVwessuns
p5411
(lp5412
g61
ag84
ag11
ag44
ag28
ag40
asVtreyin
p5413
(lp5414
g27
ag36
aVeI
p5415
ag19
ag28
asVinnovator
p5416
(lp5417
g19
ag28
ag31
ag85
aVeI
p5418
ag27
ag33
asVheaters
p5419
(lp5420
g16
aVi:
p5421
ag27
ag33
ag40
asVwire
p5422
(lp5423
g61
aVaI@
p5424
asVcried
p5425
(lp5426
g22
ag36
aVaI
p5427
ag32
asVbelow
p5428
(lp5429
g43
aVI2
p5430
ag5
aVoU
p5431
asVstate
p5432
(lp5433
g11
ag27
aVeI
p5434
ag27
asVclosed
p5435
(lp5436
g22
ag5
aVoU
p5437
ag40
ag32
asVtens
p5438
(lp5439
g27
ag84
ag28
ag40
asVcnotes
p5440
(lp5441
g11
aVi:
p5442
ag28
aVoU
p5443
ag27
ag11
asVpistol
p5444
(lp5445
g13
ag19
ag11
ag27
aV@L
p5446
asVlinebacker
p5447
(lp5448
g5
aVaI
p5449
ag28
ag43
ag17
ag22
ag33
asVcolombian
p5450
(lp5451
g22
ag31
ag5
ag44
ag24
ag43
aVi@
p5452
ag28
asVspeed
p5453
(lp5454
g11
ag13
aVi:
p5455
ag32
asVbought
p5456
(lp5457
g43
aVO:
p5458
ag27
asVjunkies
p5459
(lp5460
VdZ
p5461
ag44
ag18
ag22
ag45
ag40
asVdeliver
p5462
(lp5463
g32
aVI2
p5464
ag5
ag19
ag85
ag33
asVjob
p5465
(lp5466
VdZ
p5467
ag108
ag43
asVkey
p5468
(lp5469
g22
aVi:
p5470
asVsquads
p5471
(lp5472
g11
ag22
ag61
ag108
ag32
ag40
asVprecious
p5473
(lp5474
g13
ag36
ag84
ag74
ag31
ag11
asVfaggot
p5475
(lp5476
g3
ag17
ag54
ag31
ag27
asVhobo
p5477
(lp5478
g16
aVoU
p5479
ag43
aVoU
p5480
asVfigured
p5481
(lp5482
g3
ag19
ag54
ag33
ag32
asVtaking
p5483
(lp5484
g27
aVeI
p5485
ag22
ag19
ag18
asVdrug
p5486
(lp5487
g32
ag36
ag44
ag54
asVhustlers
p5488
(lp5489
g16
ag44
ag11
ag5
ag33
ag40
asVfigures
p5490
(lp5491
g3
ag19
ag54
ag33
ag40
asVpuff
p5492
(lp5493
g13
ag44
ag3
asVwall
p5494
(lp5495
g61
aVO:
p5496
ag5
asVmakin
p5497
(lp5498
g24
ag17
ag22
ag19
ag28
asVwalk
p5499
(lp5500
g61
aVO:
p5501
ag22
asVlaugh
p5502
(lp5503
g5
aVaa
p5504
ag3
asVnews
p5505
(lp5506
g28
ag81
aVu:
p5507
ag40
asVtable
p5508
(lp5509
g27
aVeI
p5510
ag43
aV@L
p5511
asVlabor
p5512
(lp5513
g5
aVeI
p5514
ag43
ag33
asVpouring
p5515
(lp5516
g13
aVo@
p5517
ag36
ag19
ag18
asVwills
p5518
(lp5519
g61
ag19
ag5
ag40
asVcharts
p5520
(lp5521
VtS
p5522
aVA@
p5523
ag27
ag11
asVuhoh
p5524
(lp5525
g81
aVu:
p5526
ag16
aVoU
p5527
asVseasoned
p5528
(lp5529
g11
aVi:
p5530
ag40
ag31
ag28
ag32
asVtreat
p5531
(lp5532
g27
ag36
aVi:
p5533
ag27
asVtv
p5534
(lp5535
g27
aVi:
p5536
ag85
aVi:
p5537
asVshoulders
p5538
(lp5539
g74
aVoU
p5540
ag5
ag32
ag33
ag40
asVglock
p5541
(lp5542
g54
ag5
ag108
ag22
asVnickel
p5543
(lp5544
g28
ag19
ag22
aV@L
p5545
asVrubble
p5546
(lp5547
g36
ag44
ag43
aV@L
p5548
asVcaddy
p5549
(lp5550
g22
ag17
ag32
ag45
asVkoolaid
p5551
(lp5552
g22
aVu:
p5553
ag5
aVeI
p5554
ag32
asVredhead
p5555
(lp5556
g36
ag84
ag32
ag16
ag84
ag32
asVcontroller
p5557
(lp5558
g22
ag31
ag28
ag27
ag36
aVoU
p5559
ag5
ag33
asVangles
p5560
(lp5561
g17
ag18
ag54
aV@L
p5562
ag40
asVbull
p5563
(lp5564
g43
ag92
ag5
asVdodge
p5565
(lp5566
g32
ag108
aVdZ
p5567
asVharder
p5568
(lp5569
g16
aVA@
p5570
ag32
ag33
asVchoices
p5571
(lp5572
VtS
p5573
aVOI
p5574
ag11
aVI2
p5575
ag40
asVwill
p5576
(lp5577
g61
ag19
ag5
asVgucci
p5578
(lp5579
g54
aVu:
p5580
aVtS
p5581
ag45
asVwild
p5582
(lp5583
g61
aVaI
p5584
ag5
ag32
asVdemo
p5585
(lp5586
g32
ag84
ag24
aVoU
p5587
asVdrips
p5588
(lp5589
g32
ag36
ag19
ag13
ag11
asVaces
p5590
(lp5591
VeI
p5592
ag11
aVI2
p5593
ag40
asVswinging
p5594
(lp5595
g11
ag61
ag19
ag18
ag19
ag18
asVinspector
p5596
(lp5597
g19
ag28
ag11
ag13
ag84
ag22
ag27
ag33
asVsits
p5598
(lp5599
g11
ag19
ag27
ag11
asVmoves
p5600
(lp5601
g24
aVu:
p5602
ag85
ag40
asVcross
p5603
(lp5604
g22
ag36
ag108
ag11
asVromance
p5605
(lp5606
g36
aVoU
p5607
ag24
ag17
ag28
ag11
asVpiles
p5608
(lp5609
g13
aVaI
p5610
ag5
ag40
asVparts
p5611
(lp5612
g13
aVA@
p5613
ag27
ag11
asVkvon
p5614
(lp5615
g22
aVeI
p5616
ag85
ag108
ag28
asVpickin
p5617
(lp5618
g13
ag19
ag22
ag19
ag28
asVninetyfive
p5619
(lp5620
g28
aVaI
p5621
ag28
ag27
ag19
ag3
aVaI
p5622
ag85
asVball
p5623
(lp5624
g43
aVO:
p5625
ag5
asVdrink
p5626
(lp5627
g32
ag36
ag19
ag18
ag22
asVdiploma
p5628
(lp5629
g32
ag19
ag13
ag5
aVoU
p5630
ag24
ag31
asVspitting
p5631
(lp5632
g11
ag13
ag19
ag27
ag19
ag18
asVknahmsayin
p5633
(lp5634
g28
aVA:
p5635
ag24
ag11
aVeI
p5636
ag19
ag28
asVfucked
p5637
(lp5638
g3
ag44
ag22
ag27
asVexpand
p5639
(lp5640
g84
ag22
ag11
ag13
ag17
ag28
ag32
asVoff
p5641
(lp5642
g108
ag3
asg45
(lp5643
VaI
p5644
asVweapon
p5645
(lp5646
g61
ag84
ag13
ag31
ag28
asVwell
p5647
(lp5648
g61
ag84
ag5
asVbanging
p5649
(lp5650
g43
ag17
ag18
ag19
ag18
asVthought
p5651
(lp5652
g63
aVO:
p5653
ag27
asVposition
p5654
(lp5655
g13
ag31
ag40
ag19
ag74
ag31
ag28
asVmuscle
p5656
(lp5657
g24
ag44
ag11
aV@L
p5658
asVsaunas
p5659
(lp5660
g11
aVO:
p5661
ag28
ag31
ag40
asVgully
p5662
(lp5663
g54
ag44
ag5
ag45
asVrocket
p5664
(lp5665
g36
ag108
ag22
aVI2
p5666
ag27
asVflesh
p5667
(lp5668
g3
ag5
ag84
ag74
asVhands
p5669
(lp5670
g16
ag17
ag28
ag32
ag40
asVseats
p5671
(lp5672
g11
aVi:
p5673
ag27
ag11
asVrapid
p5674
(lp5675
g36
ag17
ag13
ag19
ag32
asVpoint
p5676
(lp5677
g13
aVOI
p5678
ag28
ag27
asVsky
p5679
(lp5680
g11
ag22
aVaI
p5681
asVlake
p5682
(lp5683
g5
aVeI
p5684
ag22
asVslinger
p5685
(lp5686
g11
ag5
ag19
ag18
ag54
ag33
asVclyde
p5687
(lp5688
g22
ag5
aVaI
p5689
ag32
asVslits
p5690
(lp5691
g11
ag5
ag19
ag27
ag11
asVwet
p5692
(lp5693
g61
ag84
ag27
asVmorgue
p5694
(lp5695
g24
aVO@
p5696
ag54
asVkick
p5697
(lp5698
g22
ag19
ag22
asVbreezing
p5699
(lp5700
g43
ag36
aVi:
p5701
ag40
ag19
ag18
asVlivin
p5702
(lp5703
g5
ag19
ag85
ag19
ag28
asVfate
p5704
(lp5705
g3
aVeI
p5706
ag27
asVfive
p5707
(lp5708
g3
aVaI
p5709
ag85
asVknow
p5710
(lp5711
g28
aVoU
p5712
asVlike
p5713
(lp5714
g5
aVaI
p5715
ag22
asVlost
p5716
(lp5717
g5
ag108
ag11
ag27
asVmiami
p5718
(lp5719
g24
aVaI
p5720
ag1000
ag17
ag24
ag45
asVliftin
p5721
(lp5722
g5
ag19
ag3
ag27
ag19
ag28
asVjayz
p5723
(lp5724
VdZ
p5725
aVeI
p5726
ag40
asVcandy
p5727
(lp5728
g22
ag17
ag28
ag32
ag45
asVloses
p5729
(lp5730
g5
aVu:
p5731
ag40
aVI2
p5732
ag40
asVlose
p5733
(lp5734
g5
aVu:
p5735
ag40
asVchick
p5736
(lp5737
VtS
p5738
ag19
ag22
asVworks
p5739
(lp5740
g61
aV3:
p5741
ag22
ag11
asVtrucked
p5742
(lp5743
g27
ag36
ag44
ag22
ag27
asVnigga
p5744
(lp5745
g28
ag19
ag54
ag31
asVpolar
p5746
(lp5747
g13
aVoU
p5748
ag5
ag33
asVbleedin
p5749
(lp5750
g43
ag5
aVi:
p5751
ag32
ag19
ag28
asVhail
p5752
(lp5753
g16
aVeI
p5754
ag5
asVholler
p5755
(lp5756
g16
ag108
ag5
ag33
asVshes
p5757
(lp5758
g74
aVI2
p5759
ag40
asVproper
p5760
(lp5761
g13
ag36
ag108
ag13
ag33
asVhome
p5762
(lp5763
g16
aVoU
p5764
ag24
asVpeter
p5765
(lp5766
g13
aVi:
p5767
ag27
ag33
asVtreyeight
p5768
(lp5769
g27
ag36
aVeI
p5770
aVeI
p5771
ag27
asVhappens
p5772
(lp5773
g16
ag17
ag13
ag31
ag28
ag40
asVlead
p5774
(lp5775
g5
aVi:
p5776
ag32
asVsteaming
p5777
(lp5778
g11
ag27
aVi:
p5779
ag24
ag19
ag18
asVbroad
p5780
(lp5781
g43
ag36
aVO:
p5782
ag32
asVavoid
p5783
(lp5784
Va#
p5785
ag85
aVOI
p5786
ag32
asVlean
p5787
(lp5788
g5
aVi:
p5789
ag28
asVmines
p5790
(lp5791
g24
aVaI
p5792
ag28
ag40
asVfloss
p5793
(lp5794
g3
ag5
ag108
ag11
asVcradle
p5795
(lp5796
g22
ag36
aVeI
p5797
ag32
aV@L
p5798
asVpassion
p5799
(lp5800
g13
ag17
ag74
ag31
ag28
asVbosses
p5801
(lp5802
g43
ag108
ag11
aVI2
p5803
ag40
asVchains
p5804
(lp5805
VtS
p5806
aVeI
p5807
ag28
ag40
asVpiecin
p5808
(lp5809
g13
aVaI
p5810
ag11
ag19
ag28
asVripped
p5811
(lp5812
g36
ag19
ag13
ag27
asVblowing
p5813
(lp5814
g43
ag5
aVoU
p5815
ag19
ag18
asVcoated
p5816
(lp5817
g22
aVoU
p5818
ag27
aVI2
p5819
ag32
asVslight
p5820
(lp5821
g11
ag5
aVaI
p5822
ag27
asVmitt
p5823
(lp5824
g24
ag19
ag27
asVslut
p5825
(lp5826
g11
ag5
ag44
ag27
asVpressure
p5827
(lp5828
g13
ag36
ag84
ag74
ag33
asVschoolyard
p5829
(lp5830
g11
ag22
aVu:
p5831
ag5
ag81
aVA@
p5832
ag32
asVslug
p5833
(lp5834
g11
ag5
ag44
ag54
asVvuitton
p5835
(lp5836
g85
ag81
aVu:
p5837
ag19
ag27
ag31
ag28
asVabout
p5838
(lp5839
Va#
p5840
ag43
aVaU
p5841
ag27
asVcommited
p5842
(lp5843
g22
ag31
ag24
aVaI
p5844
ag27
aVI2
p5845
ag32
asVsocket
p5846
(lp5847
g11
ag108
ag22
aVI2
p5848
ag27
asVgetting
p5849
(lp5850
g54
ag84
ag27
ag19
ag18
asVtray
p5851
(lp5852
g27
ag36
aVeI
p5853
asVwaist
p5854
(lp5855
g61
aVeI
p5856
ag11
ag27
asVflake
p5857
(lp5858
g3
ag5
aVeI
p5859
ag22
asVswear
p5860
(lp5861
g11
ag61
aVe@
p5862
asVsweat
p5863
(lp5864
g11
ag61
ag84
ag27
asVbullets
p5865
(lp5866
g43
ag92
ag5
ag19
ag27
ag11
asVtongue
p5867
(lp5868
g27
ag44
ag18
asVshoppin
p5869
(lp5870
g74
ag108
ag13
ag19
ag28
asVcontractions
p5871
(lp5872
g22
ag31
ag28
ag27
ag36
ag17
ag22
ag74
ag31
ag28
ag40
asVsmarts
p5873
(lp5874
g11
ag24
aVA@
p5875
ag27
ag11
asVcocked
p5876
(lp5877
g22
ag108
ag22
ag27
asVchronic
p5878
(lp5879
g22
ag36
ag108
ag28
ag19
ag22
asVguard
p5880
(lp5881
g54
aVA@
p5882
ag32
asVcouldnt
p5883
(lp5884
g22
ag92
ag32
ag28
ag27
asVparkways
p5885
(lp5886
g13
aVA@
p5887
ag22
ag61
aVeI
p5888
ag40
asVbehind
p5889
(lp5890
g43
aVI2
p5891
ag16
aVaI
p5892
ag28
ag32
asVwack
p5893
(lp5894
g61
ag17
ag22
asVlegends
p5895
(lp5896
g5
ag84
aVdZ
p5897
ag31
ag28
ag32
ag40
asVspots
p5898
(lp5899
g11
ag13
ag108
ag27
ag11
asVbump
p5900
(lp5901
g43
ag44
ag24
ag13
asVtrigger
p5902
(lp5903
g27
ag36
ag19
ag54
ag33
asVnaturally
p5904
(lp5905
g28
ag17
aVtS
p5906
ag31
ag36
aV@L
p5907
ag45
asVbuy
p5908
(lp5909
g43
aVaI
p5910
asVnorth
p5911
(lp5912
g28
aVO@
p5913
ag63
asVhomebase
p5914
(lp5915
g16
aVoU
p5916
ag24
ag43
aVeI
p5917
ag11
asVcoke
p5918
(lp5919
g22
aVoU
p5920
ag22
asVbitches
p5921
(lp5922
g43
ag19
aVtS
p5923
aVI2
p5924
ag40
asVbut
p5925
(lp5926
g43
ag44
ag27
asVgunslingin
p5927
(lp5928
g54
ag44
ag28
ag11
ag5
ag19
ag18
ag54
ag19
ag28
asVho
p5929
(lp5930
g16
aVoU
p5931
asVsqueeze
p5932
(lp5933
g11
ag22
ag61
aVi:
p5934
ag40
asVeat
p5935
(lp5936
Vi:
p5937
ag27
asVhe
p5938
(lp5939
g16
aVi:
p5940
asVmnage
p5941
(lp5942
g24
aVeI
p5943
ag28
aVA:
p5944
ag2398
asVtactics
p5945
(lp5946
g27
ag17
ag22
ag27
ag19
ag22
ag11
asVrepeatin
p5947
(lp5948
g36
aVI2
p5949
ag13
aVi:
p5950
ag27
ag19
ag28
asVdangerous
p5951
(lp5952
g32
aVeI
p5953
ag28
aVdZ
p5954
ag31
ag36
ag31
ag11
asVflip
p5955
(lp5956
g3
ag5
ag19
ag13
asVrecord
p5957
(lp5958
g36
ag84
ag22
aVO@
p5959
ag32
asVcarriage
p5960
(lp5961
g22
ag17
ag36
aVI2
p5962
aVdZ
p5963
asVlimit
p5964
(lp5965
g5
ag19
ag24
ag19
ag27
asVcake
p5966
(lp5967
g22
aVeI
p5968
ag22
asVproblem
p5969
(lp5970
g13
ag36
ag108
ag43
ag5
ag31
ag24
asVpiece
p5971
(lp5972
g13
aVi:
p5973
ag11
asVstirring
p5974
(lp5975
g11
ag27
aV3:
p5976
ag36
ag19
ag18
asVkisses
p5977
(lp5978
g22
ag19
ag11
aVI2
p5979
ag40
asVpie
p5980
(lp5981
g13
aVaI
p5982
asVtwist
p5983
(lp5984
g27
ag61
ag19
ag11
ag27
asVbeats
p5985
(lp5986
g43
aVi:
p5987
ag27
ag11
asVfinished
p5988
(lp5989
g3
ag19
ag28
ag19
ag74
ag27
asVhappen
p5990
(lp5991
g16
ag17
ag13
ag31
ag28
asVdressed
p5992
(lp5993
g32
ag36
ag84
ag11
ag27
asVattacked
p5994
(lp5995
Va#
p5996
ag27
ag17
ag22
ag27
asVclaiming
p5997
(lp5998
g22
ag5
aVeI
p5999
ag24
ag19
ag18
asVroars
p6000
(lp6001
g36
aVo@
p6002
ag40
asVother
p6003
(lp6004
g44
ag114
ag33
asVboom
p6005
(lp6006
g43
aVu:
p6007
ag24
asVbetter
p6008
(lp6009
g43
ag84
ag27
ag33
asVtalkin
p6010
(lp6011
g27
aVO:
p6012
ag22
ag19
ag28
asVdresses
p6013
(lp6014
g32
ag36
ag84
ag11
aVI2
p6015
ag40
asVrepeat
p6016
(lp6017
g36
aVI2
p6018
ag13
aVi:
p6019
ag27
asVmonday
p6020
(lp6021
g24
ag44
ag28
ag32
aVeI
p6022
asVshredded
p6023
(lp6024
g74
ag36
ag84
ag32
aVI2
p6025
ag32
asVstay
p6026
(lp6027
g11
ag27
aVeI
p6028
asVpumps
p6029
(lp6030
g13
ag44
ag24
ag13
ag11
asVkinda
p6031
(lp6032
g22
aVaI
p6033
ag28
ag32
ag31
asVfriends
p6034
(lp6035
g3
ag36
ag84
ag28
ag32
ag40
asVgoin
p6036
(lp6037
g54
aVoU
p6038
aVI2
p6039
ag28
as(lp6040
Vaa
p6041
ag1000
aVi@3
p6042
aV\u000a
p6043
aVtS
p6044
aV@L
p6045
aVe@
p6046
aVO:
p6047
aVO@
p6048
ag2398
aVeI
p6049
aVu:
p6050
aVaI
p6051
aVI2
p6052
aVOI
p6053
ag108
ag33
aVaU
p6054
aVi@
p6055
aVA:
p6056
aVaI@
p6057
ag31
aVa#
p6058
aVi:
p6059
ag84
ag114
ag19
aVo@
p6060
ag74
ag92
ag63
ag44
aVoU
p6061
ag18
ag17
aV3:
p6062
aVA@
p6063
ag43
ag32
ag54
ag3
ag45
ag16
ag22
ag81
ag24
ag5
ag28
ag13
ag11
ag36
aVdZ
p6064
ag27
ag61
ag85
ag40
aVU@
p6065
atp6066
.