((dp0
Vall
p1
(lp2
VO:
p3
aVl
p4
asVliar
p5
(lp6
g4
aVaI@
p7
asVsouls
p8
(lp9
Vs
p10
aVoU
p11
ag4
aVz
p12
asVmonth
p13
(lp14
Vm
p15
aVV
p16
aVn
p17
aVT
p18
asVfour
p19
(lp20
Vf
p21
aVo@
p22
asVsettle
p23
(lp24
g10
aVE
p25
aVt
p26
aV@L
p27
asVdebris
p28
(lp29
Vd
p30
ag25
aVb
p31
aVr
p32
aVi:
p33
asVgo
p34
(lp35
Vg
p36
aVoU
p37
asVsettlement
p38
(lp39
g10
ag25
ag26
aV@L
p40
ag15
aV@
p41
ag17
ag26
asVhate
p42
(lp43
Vh
p44
aVeI
p45
ag26
asVseemed
p46
(lp47
g10
aVi:
p48
ag15
ag30
asVhurry
p49
(lp50
g44
ag16
ag32
aVi
p51
asVyoung
p52
(lp53
Vj
p54
ag16
aVN
p55
asVto
p56
(lp57
g26
aVu:
p58
asVactivist
p59
(lp60
Va
p61
aVk
p62
ag26
aVI
p63
aVv
p64
ag63
ag10
ag26
asVkensli
p65
(lp66
g62
ag25
ag17
ag10
ag4
ag51
asVbaphomet
p67
(lp68
g31
ag61
ag21
aV0
p69
ag15
aVI2
p70
ag26
asVlord
p71
(lp72
g4
aVO@
p73
ag30
asVme
p74
(lp75
g15
aVi:
p76
asVwoman
p77
(lp78
Vw
p79
aVU
p80
ag15
ag41
ag17
asVrise
p81
(lp82
g32
aVaI
p83
ag12
asVrewrapped
p84
(lp85
g32
aVI2
p86
ag32
ag61
aVp
p87
ag26
asVevery
p88
(lp89
g25
ag64
ag32
aVI2
p90
asVnichols
p91
(lp92
g17
ag63
ag62
aV@L
p93
ag12
asVdecide
p94
(lp95
g30
aVI2
p96
ag10
aVaI
p97
ag30
asVconfederate
p98
(lp99
g62
ag41
ag17
ag21
ag25
ag30
aV3
p100
ag32
ag41
ag26
asVconfetti
p101
(lp102
g62
ag41
ag17
ag21
ag25
ag26
ag51
asVminute
p103
(lp104
g15
ag63
ag17
ag63
ag26
asVmothers
p105
(lp106
g15
ag16
aVD
p107
ag100
ag12
asVdid
p108
(lp109
g30
ag63
ag30
asVdie
p110
(lp111
g30
aVaI
p112
asVmarry
p113
(lp114
g15
ag61
ag32
ag51
asVgettin
p115
(lp116
g36
ag25
ag26
ag63
ag17
asVdeals
p117
(lp118
g30
aVi:
p119
ag4
ag12
asVunrelated
p120
(lp121
g16
ag17
ag32
aVI2
p122
ag4
aVeI
p123
ag26
aVI2
p124
ag30
asVdisheveled
p125
(lp126
g30
aVI2
p127
aVS
p128
ag25
ag64
aV@L
p129
ag30
asVguy
p130
(lp131
g36
aVaI
p132
asVrack
p133
(lp134
g32
ag61
ag62
asVtired
p135
(lp136
g26
aVaI@
p137
ag30
asVstreets
p138
(lp139
g10
ag26
ag32
aVi:
p140
ag26
ag10
asVsign
p141
(lp142
g10
aVaI
p143
ag17
asVshoveled
p144
(lp145
g128
ag16
ag64
aV@L
p146
ag30
asVinvestment
p147
(lp148
g63
ag17
ag64
ag25
ag10
ag26
ag15
ag41
ag17
ag26
asVjesus
p149
(lp150
VdZ
p151
aVi:
p152
ag12
ag41
ag10
asVwhat
p153
(lp154
g79
ag69
ag26
asVbusiness
p155
(lp156
g31
ag63
ag12
ag17
ag41
ag10
asVaddy
p157
(lp158
g61
ag30
ag51
asVbatsignal
p159
(lp160
g31
ag61
ag26
ag10
ag63
ag36
ag17
aV@L
p161
asVnew
p162
(lp163
g17
ag54
aVu:
p164
asVever
p165
(lp166
g25
ag64
ag100
asVwheelies
p167
(lp168
g79
aVi:
p169
ag4
ag51
ag12
asVtold
p170
(lp171
g26
aVoU
p172
ag4
ag30
asVtroyer
p173
(lp174
g26
ag32
aVOI
p175
ag100
asVfull
p176
(lp177
g21
ag80
ag4
asVdeadbeat
p178
(lp179
g30
ag25
ag30
ag31
aVi:
p180
ag26
asVnever
p181
(lp182
g17
ag25
ag64
ag100
asVmicroaggressions
p183
(lp184
g15
aVaI
p185
ag62
ag32
aVoU
p186
aVa#
p187
ag36
ag32
ag25
ag128
ag41
ag17
ag12
asVmes
p188
(lp189
g15
ag25
ag10
asVshoulda
p190
(lp191
g128
ag80
ag30
ag41
asVchange
p192
(lp193
VtS
p194
aVeI
p195
ag17
aVdZ
p196
asVwait
p197
(lp198
g79
aVeI
p199
ag26
asVdry
p200
(lp201
g30
ag32
aVaI
p202
asVboy
p203
(lp204
g31
aVOI
p205
asVkids
p206
(lp207
g62
ag63
ag30
ag12
asVmy
p208
(lp209
g15
aVaI
p210
asVsoldier
p211
(lp212
g10
aVoU
p213
ag4
aVdZ
p214
ag100
asVchano
p215
(lp216
VtS
p217
aVA:
p218
ag17
aVoU
p219
asVsuggestion
p220
(lp221
g10
ag41
aVdZ
p222
ag25
ag10
aVtS
p223
ag41
ag17
asVfederline
p224
(lp225
g21
ag25
ag30
ag100
ag4
aVaI
p226
ag17
asVreal
p227
(lp228
g32
aVi@
p229
ag4
asVthats
p230
(lp231
g107
ag61
ag26
ag10
asVgolden
p232
(lp233
g36
aVoU
p234
ag4
ag30
ag41
ag17
asVlove
p235
(lp236
g4
ag16
ag64
asVdanger
p237
(lp238
g30
aVeI
p239
ag17
aVdZ
p240
ag100
asVpensions
p241
(lp242
g87
ag25
ag17
ag128
ag41
ag17
ag12
asVask
p243
(lp244
Vaa
p245
ag10
ag62
asVnames
p246
(lp247
g17
aVeI
p248
ag15
ag12
asVeverybody
p249
(lp250
g25
ag64
ag32
aVI2
p251
ag31
ag69
ag30
ag51
asVuse
p252
(lp253
g54
aVu:
p254
ag10
asVswings
p255
(lp256
g10
ag79
ag63
ag55
ag12
asVeye
p257
(lp258
VaI
p259
asVwould
p260
(lp261
g79
ag80
ag30
asVtwo
p262
(lp263
g26
aVu:
p264
asVflat
p265
(lp266
g21
ag4
ag61
ag26
asVnext
p267
(lp268
g17
ag25
ag62
ag10
ag26
asVstacking
p269
(lp270
g10
ag26
ag61
ag62
ag63
ag55
asVsitter
p271
(lp272
g10
ag63
ag26
ag100
asVcall
p273
(lp274
g62
aVO:
p275
ag4
asVtypo
p276
(lp277
g26
aVaI
p278
ag87
aVoU
p279
asVgorgeous
p280
(lp281
g36
aVo@
p282
aVdZ
p283
ag41
ag10
asVtype
p284
(lp285
g26
aVaI
p286
ag87
asVtell
p287
(lp288
g26
ag25
ag4
asVmore
p289
(lp290
g15
aVo@
p291
asVtryna
p292
(lp293
g26
ag32
aVi:
p294
ag17
ag41
asVmarbles
p295
(lp296
g15
aVA@
p297
ag31
aV@L
p298
ag12
asVsuccessful
p299
(lp300
g10
ag41
ag62
ag10
ag25
ag10
ag21
aV@L
p301
asVsuntimes
p302
(lp303
g10
ag16
ag17
ag26
aVaI
p304
ag15
ag12
asVdowntown
p305
(lp306
g30
aVaU
p307
ag17
ag26
aVaU
p308
ag17
asVbroke
p309
(lp310
g31
ag32
aVoU
p311
ag62
asVbaby
p312
(lp313
g31
aVeI
p314
ag31
ag51
asVgiven
p315
(lp316
g36
ag63
ag64
ag41
ag17
asVmust
p317
(lp318
g15
ag16
ag10
ag26
asVfly
p319
(lp320
g21
ag4
aVaI
p321
asVhigh
p322
(lp323
g44
aVaI
p324
asVnone
p325
(lp326
g17
ag69
ag17
asVanything
p327
(lp328
g25
ag17
aVI2
p329
ag18
ag63
ag55
asVniggas
p330
(lp331
g17
ag63
ag36
ag41
ag12
asVthis
p332
(lp333
g107
ag63
ag10
asVcar
p334
(lp335
g62
aVA@
p336
asVhomie
p337
(lp338
g44
aVoU
p339
ag15
ag51
asVnine
p340
(lp341
g17
aVaI
p342
ag17
asVcan
p343
(lp344
g62
ag61
ag17
asVcam
p345
(lp346
g62
ag61
ag15
asVcab
p347
(lp348
g62
ag61
ag31
asVdrops
p349
(lp350
g30
ag32
ag69
ag87
ag10
asVaverages
p351
(lp352
g61
ag64
ag41
aV
p353
ag32
aVI2
p354
aVdZ
p355
aVI2
p356
ag12
asVgive
p357
(lp358
g36
ag63
ag64
asVraps
p359
(lp360
g32
ag61
ag87
ag10
asVshare
p361
(lp362
g128
aVe@
p363
asVfuck
p364
(lp365
g21
ag16
ag62
asVhoney
p366
(lp367
g44
ag16
ag17
ag51
asVheard
p368
(lp369
g44
aV3:
p370
ag30
asVtag
p371
(lp372
g26
ag61
ag36
asVwant
p373
(lp374
g79
ag69
ag17
ag26
asVscar
p375
(lp376
g10
ag62
aVA@
p377
asVyouououou
p378
(lp379
g54
aVaU
p380
aVaU
p381
aVaU
p382
aVu:
p383
asVthing
p384
(lp385
g18
ag63
ag55
asVledger
p386
(lp387
g4
ag25
aVdZ
p388
ag100
asVhow
p389
(lp390
g44
aVaU
p391
asVhot
p392
(lp393
g44
ag69
ag26
asVprenup
p394
(lp395
g87
ag32
ag63
ag17
ag16
ag87
asVinterview
p396
(lp397
g63
ag17
ag26
ag100
ag64
ag54
aVu:
p398
asVresignation
p399
(lp400
g32
ag25
ag12
ag63
ag36
ag17
aVeI
p401
ag128
ag41
ag17
asVproduct
p402
(lp403
g87
ag32
ag69
ag30
ag16
ag62
ag26
asVtried
p404
(lp405
g26
ag32
aVaI
p406
ag30
asVmay
p407
(lp408
g15
aVeI
p409
asVact
p410
(lp411
g61
ag62
ag26
asVspot
p412
(lp413
g10
ag87
ag69
ag26
asVbackyard
p414
(lp415
g31
ag61
ag62
ag54
aVA@
p416
ag30
asVguys
p417
(lp418
g36
aVaI
p419
ag12
asVgrow
p420
(lp421
g36
ag32
aVoU
p422
asVman
p423
(lp424
g15
ag61
ag17
asg61
(lp425
VeI
p426
asVroses
p427
(lp428
g32
aVoU
p429
ag12
aVI2
p430
ag12
asVshort
p431
(lp432
g128
aVO@
p433
ag26
asVremember
p434
(lp435
g32
aVI2
p436
ag15
ag25
ag15
ag31
ag100
asVlight
p437
(lp438
g4
aVaI
p439
ag26
asVlost
p440
(lp441
g4
ag69
ag10
ag26
asVso
p442
(lp443
g10
aVoU
p444
asVthings
p445
(lp446
g18
ag63
ag55
ag12
asVfufufufufufu
p447
(lp448
g21
ag54
aVu:
p449
ag21
ag54
aVu:
p450
ag21
ag54
aVu:
p451
ag21
ag54
aVu:
p452
ag21
aVu:
p453
ag21
aVu:
p454
asVorder
p455
(lp456
VO@
p457
ag30
ag100
asVtalk
p458
(lp459
g26
aVO:
p460
ag62
asVjack
p461
(lp462
VdZ
p463
ag61
ag62
asVover
p464
(lp465
VoU
p466
ag64
ag100
asVfall
p467
(lp468
g21
aVO:
p469
ag4
asVsoon
p470
(lp471
g10
aVu:
p472
ag17
asVpaper
p473
(lp474
g87
aVeI
p475
ag87
ag100
asVpitch
p476
(lp477
g87
ag63
aVtS
p478
asVcold
p479
(lp480
g62
aVoU
p481
ag4
ag30
asVstill
p482
(lp483
g10
ag26
ag63
ag4
asVits
p484
(lp485
g63
ag26
ag10
asVbefore
p486
(lp487
g31
aVI2
p488
ag21
aVo@
p489
asVperfect
p490
(lp491
g87
aV3:
p492
ag21
ag25
ag62
ag26
asVpolice
p493
(lp494
g87
ag41
ag4
aVi:
p495
ag10
asVfit
p496
(lp497
g21
ag63
ag26
asVla
p498
(lp499
g4
ag61
asVchosen
p500
(lp501
VtS
p502
aVoU
p503
ag12
ag41
ag17
asVfix
p504
(lp505
g21
ag63
ag62
ag10
asVacres
p506
(lp507
VeI
p508
ag62
ag100
ag12
asVbetter
p509
(lp510
g31
ag25
ag26
ag100
asVtreetops
p511
(lp512
g26
ag32
aVi:
p513
ag26
ag69
ag87
ag10
asVwindow
p514
(lp515
g79
ag63
ag17
ag30
aVoU
p516
asVdegrees
p517
(lp518
g30
aVI2
p519
ag36
ag32
aVi:
p520
ag12
asVhometown
p521
(lp522
g44
aVoU
p523
ag15
ag26
aVaU
p524
ag17
asVsuspension
p525
(lp526
g10
ag41
ag10
ag87
ag25
ag17
ag128
ag41
ag17
asVbout
p527
(lp528
g31
aVaU
p529
ag26
asVsauce
p530
(lp531
g10
aVO:
p532
ag10
asVdad
p533
(lp534
g30
ag61
ag30
asVthen
p535
(lp536
g107
ag25
ag17
asVthem
p537
(lp538
g107
ag25
ag15
asVgood
p539
(lp540
g36
ag80
ag30
asVreturn
p541
(lp542
g32
aVI2
p543
ag26
aV3:
p544
ag17
asVya
p545
(lp546
g54
aVa#
p547
asVsolo
p548
(lp549
g10
aVoU
p550
ag4
aVoU
p551
asVpractice
p552
(lp553
g87
ag32
ag61
ag62
ag26
ag63
ag10
asVfinish
p554
(lp555
g21
ag63
ag17
ag63
ag128
asVmention
p556
(lp557
g15
ag25
ag17
ag128
ag41
ag17
asVcrib
p558
(lp559
g62
ag32
ag63
ag31
asVexpectin
p560
(lp561
g25
ag62
ag10
ag87
ag25
ag62
ag26
ag63
ag17
asVschools
p562
(lp563
g10
ag62
aVu:
p564
ag4
ag12
asVabacus
p565
(lp566
g61
ag31
ag61
ag62
ag41
ag10
asVday
p567
(lp568
g30
aVeI
p569
asVworlds
p570
(lp571
g79
aV3:
p572
ag4
ag30
ag12
asValways
p573
(lp574
VO:
p575
ag4
ag79
aVeI
p576
ag12
asVslide
p577
(lp578
g10
ag4
aVaI
p579
ag30
asVtruth
p580
(lp581
g26
ag32
aVu:
p582
ag18
asVwent
p583
(lp584
g79
ag25
ag17
ag26
asVside
p585
(lp586
g10
aVaI
p587
ag30
asVmean
p588
(lp589
g15
aVi:
p590
ag17
asVafforded
p591
(lp592
Va#
p593
ag21
aVo@
p594
ag30
aVI2
p595
ag30
asVilluminati
p596
(lp597
g63
ag4
aVu:
p598
ag15
ag63
ag17
aVA:
p599
ag26
ag51
asVhouse
p600
(lp601
g44
aVaU
p602
ag10
asVhard
p603
(lp604
g44
aVA@
p605
ag30
asVtaught
p606
(lp607
g26
aVO:
p608
ag26
asVyear
p609
(lp610
g54
aVi@3
p611
asVpopping
p612
(lp613
g87
ag69
ag87
ag63
ag55
asVreally
p614
(lp615
g32
aVi@
p616
ag4
ag63
asVtry
p617
(lp618
g26
ag32
aVaI
p619
asVpatll
p620
(lp621
g87
ag61
ag26
ag4
aV@L
p622
asVgon
p623
(lp624
g36
ag69
ag17
asVmissed
p625
(lp626
g15
ag63
ag10
ag26
asVblacks
p627
(lp628
g31
ag4
ag61
ag62
ag10
asVopen
p629
(lp630
VoU
p631
ag87
ag41
ag17
asVsince
p632
(lp633
g10
ag63
ag17
ag10
asVinvestigation
p634
(lp635
g63
ag17
ag64
ag25
ag10
ag26
ag63
ag36
aVeI
p636
ag128
ag41
ag17
asVgot
p637
(lp638
g36
ag69
ag26
asVcause
p639
(lp640
g62
aVO:
p641
ag12
asVcommon
p642
(lp643
g62
ag69
ag15
ag41
ag17
asVass
p644
(lp645
g61
ag10
asVcars
p646
(lp647
g62
aVA@
p648
ag12
asVbitches
p649
(lp650
g31
ag63
aVtS
p651
aVI2
p652
ag12
asVguess
p653
(lp654
g36
ag25
ag10
asVfree
p655
(lp656
g21
ag32
aVi:
p657
asVhouses
p658
(lp659
g44
aVaU
p660
ag12
aVI2
p661
ag12
asVvacations
p662
(lp663
g64
aVeI
p664
ag62
aVeI
p665
ag128
ag41
ag17
ag12
asVput
p666
(lp667
g87
ag80
ag26
asVteach
p668
(lp669
g26
aVi:
p670
aVtS
p671
asVchatham
p672
(lp673
VtS
p674
ag61
ag26
ag41
ag15
asVhavent
p675
(lp676
g44
ag61
ag64
ag41
ag353
ag17
ag26
asVscary
p677
(lp678
g10
ag62
aVe@
p679
ag32
ag51
asVyard
p680
(lp681
g54
aVA@
p682
ag30
asVingleside
p683
(lp684
g63
ag55
ag36
ag4
ag25
ag10
aVaI
p685
ag30
asVcould
p686
(lp687
g62
ag80
ag30
asVinexpensive
p688
(lp689
g63
ag17
ag25
ag62
ag10
ag87
ag25
ag17
ag10
ag63
ag64
asVdays
p690
(lp691
g30
aVeI
p692
ag12
asVkeep
p693
(lp694
g62
aVi:
p695
ag87
asVturn
p696
(lp697
g26
aV3:
p698
ag17
asVswing
p699
(lp700
g10
ag79
ag63
ag55
asVthink
p701
(lp702
g18
ag63
ag55
ag62
asVfuckin
p703
(lp704
g21
ag16
ag62
ag63
ag17
asVfirst
p705
(lp706
g21
aV3:
p707
ag10
ag26
asVdont
p708
(lp709
g30
aVoU
p710
ag17
ag26
asVfeel
p711
(lp712
g21
aVi:
p713
ag4
asVowned
p714
(lp715
VoU
p716
ag17
ag30
asVone
p717
(lp718
g79
ag69
ag17
asVdone
p719
(lp720
g30
ag16
ag17
asVbitch
p721
(lp722
g31
ag63
aVtS
p723
asVring
p724
(lp725
g32
ag63
ag55
asVmiss
p726
(lp727
g15
ag63
ag10
asVsize
p728
(lp729
g10
aVaI
p730
ag12
asVrented
p731
(lp732
g32
ag25
ag17
ag26
aVI2
p733
ag30
asVcity
p734
(lp735
g10
ag63
ag26
ag51
asVlittle
p736
(lp737
g4
ag63
ag26
aV@L
p738
asVdevils
p739
(lp740
g30
ag25
ag64
aV@L
p741
ag12
asVelevator
p742
(lp743
g25
ag4
ag63
ag64
aVeI
p744
ag26
ag100
asVtheir
p745
(lp746
g107
aVe@
p747
asVstation
p748
(lp749
g10
ag26
aVeI
p750
ag128
ag41
ag17
asVtoo
p751
(lp752
g26
aVu:
p753
asVmama
p754
(lp755
g15
ag61
ag15
aVa#
p756
asVracist
p757
(lp758
g32
aVeI
p759
ag10
ag63
ag10
ag26
asVjohn
p760
(lp761
VdZ
p762
ag69
ag17
asVbitter
p763
(lp764
g31
ag63
ag26
ag100
asVspeaking
p765
(lp766
g10
ag87
aVi:
p767
ag62
ag63
ag55
asVshell
p768
(lp769
g128
ag25
ag4
asVlot
p770
(lp771
g4
ag69
ag26
asVthat
p772
(lp773
g107
ag61
ag26
asVjamie
p774
(lp775
VdZ
p776
aVeI
p777
ag15
ag51
asVleaking
p778
(lp779
g4
aVi:
p780
ag62
ag63
ag55
asVtook
p781
(lp782
g26
ag80
ag62
asVpart
p783
(lp784
g87
aVA@
p785
ag26
asVthan
p786
(lp787
g107
aVa#
p788
ag17
asVmercy
p789
(lp790
g15
aV3:
p791
ag10
ag51
asVhundred
p792
(lp793
g44
ag16
ag17
ag30
ag32
aVI2
p794
ag30
asVgotta
p795
(lp796
g36
ag69
ag26
ag41
asVtree
p797
(lp798
g26
ag32
aVi:
p799
asVapples
p800
(lp801
g61
ag87
aV@L
p802
ag12
asVwere
p803
(lp804
g79
aV3:
p805
asVcards
p806
(lp807
g62
aVA@
p808
ag30
ag12
asVbidder
p809
(lp810
g31
ag63
ag30
ag100
asVniceass
p811
(lp812
g17
aVaI
p813
ag10
ag61
ag10
asVbet
p814
(lp815
g31
ag25
ag26
asVand
p816
(lp817
g61
ag17
ag30
asVchicagoist
p818
(lp819
g128
aVI2
p820
ag62
aVA:
p821
ag36
aVoU
p822
ag63
ag10
ag26
asVtwinkled
p823
(lp824
g26
ag79
ag63
ag55
ag62
aV@L
p825
ag30
asVsay
p826
(lp827
g10
aVeI
p828
asVhave
p829
(lp830
g44
ag61
ag64
asVcleaned
p831
(lp832
g62
ag4
aVi:
p833
ag17
ag30
asVneed
p834
(lp835
g17
aVi:
p836
ag30
asVseen
p837
(lp838
g10
aVi:
p839
ag17
asVsap
p840
(lp841
g10
ag61
ag87
asVkevin
p842
(lp843
g62
ag25
ag64
ag63
ag17
asVlie
p844
(lp845
g4
aVaI
p846
asVseethrough
p847
(lp848
g10
aVi:
p849
ag18
ag32
aVu:
p850
asVsnow
p851
(lp852
g10
ag17
aVoU
p853
asVsound
p854
(lp855
g10
aVaU
p856
ag17
ag30
asVwithout
p857
(lp858
g79
ag63
ag107
aVaU
p859
ag26
asVtake
p860
(lp861
g26
aVeI
p862
ag62
asVwhich
p863
(lp864
g79
ag63
aVtS
p865
asVsavages
p866
(lp867
g10
ag61
ag64
aVI2
p868
aVdZ
p869
aVI2
p870
ag12
asVplay
p871
(lp872
g87
ag4
aVeI
p873
asVsure
p874
(lp875
g128
aVU@
p876
asVunless
p877
(lp878
g16
ag17
ag4
ag25
ag10
asVpark
p879
(lp880
g87
aVA@
p881
ag62
asVrappers
p882
(lp883
g32
ag61
ag87
ag100
ag12
asVwho
p884
(lp885
g44
aVu:
p886
asVpaid
p887
(lp888
g87
aVeI
p889
ag30
asVbut
p890
(lp891
g31
ag16
ag26
asVnothing
p892
(lp893
g17
ag16
ag18
ag63
ag55
asVcoin
p894
(lp895
g62
aVOI
p896
ag17
asVwhy
p897
(lp898
g79
aVaI
p899
asVforever
p900
(lp901
g21
ag100
ag32
ag353
ag25
ag64
ag100
asVplacement
p902
(lp903
g87
ag4
aVeI
p904
ag10
ag15
ag41
ag17
ag26
asVclear
p905
(lp906
g62
ag4
aVi@3
p907
asVshooter
p908
(lp909
g128
aVu:
p910
ag26
ag100
asVstronger
p911
(lp912
g10
ag26
ag32
ag69
ag55
ag36
ag100
asVstockings
p913
(lp914
g10
ag26
ag69
ag62
ag63
ag55
ag12
asVcame
p915
(lp916
g62
aVeI
p917
ag15
asVgold
p918
(lp919
g36
aVoU
p920
ag4
ag30
asVshow
p921
(lp922
g128
aVoU
p923
asVsupported
p924
(lp925
g10
ag41
ag87
aVo@
p926
ag26
aVI2
p927
ag30
asVpops
p928
(lp929
g87
ag69
ag87
ag10
asVbring
p930
(lp931
g31
ag32
ag63
ag55
asVbright
p932
(lp933
g31
ag32
aVaI
p934
ag26
asVearth
p935
(lp936
V3:
p937
ag18
asVchicken
p938
(lp939
VtS
p940
ag63
ag62
ag63
ag17
asVtakin
p941
(lp942
g26
ag61
ag62
ag63
ag17
asVfind
p943
(lp944
g21
aVaI
p945
ag17
ag30
asVmake
p946
(lp947
g15
aVeI
p948
ag62
asVaint
p949
(lp950
VeI
p951
ag17
ag26
asVgenius
p952
(lp953
VdZ
p954
aVi:
p955
ag17
aVI2
p956
ag353
ag41
ag10
asVshould
p957
(lp958
g128
ag80
ag30
asVonly
p959
(lp960
VoU
p961
ag17
ag4
ag51
asVtape
p962
(lp963
g26
aVeI
p964
ag87
asVinherited
p965
(lp966
g63
ag17
ag44
ag25
ag32
ag63
ag26
aVI2
p967
ag30
asVdo
p968
(lp969
g30
aVu:
p970
asVhis
p971
(lp972
g44
ag63
ag12
asVhit
p973
(lp974
g44
ag63
ag26
asVget
p975
(lp976
g36
ag25
ag26
asVbeat
p977
(lp978
g31
aVi:
p979
ag26
asVde
p980
(lp981
g30
ag41
asVleisure
p982
(lp983
g4
ag25
aVZ
p984
ag100
asVhoya
p985
(lp986
g44
aVOI
p987
ag41
asVwords
p988
(lp989
g79
aV3:
p990
ag30
ag12
asVbasement
p991
(lp992
g31
aVeI
p993
ag10
ag15
ag41
ag17
ag26
asVchips
p994
(lp995
VtS
p996
ag63
ag87
ag10
asVhim
p997
(lp998
g44
ag63
ag15
asVchimney
p999
(lp1000
VtS
p1001
ag63
ag15
ag17
ag51
asVenemy
p1002
(lp1003
g25
ag17
ag41
ag15
ag51
asVbar
p1004
(lp1005
g31
aVA@
p1006
asVbag
p1007
(lp1008
g31
ag61
ag36
asVbad
p1009
(lp1010
g31
ag61
ag30
asVshe
p1011
(lp1012
g128
aVi:
p1013
asVgrab
p1014
(lp1015
g36
ag32
ag61
ag31
asVbought
p1016
(lp1017
g31
aVO:
p1018
ag26
asVwhere
p1019
(lp1020
g79
aVe@
p1021
asVbuilder
p1022
(lp1023
g31
ag63
ag4
ag30
ag100
asVears
p1024
(lp1025
Vi@3
p1026
ag12
asVburst
p1027
(lp1028
g31
aV3:
p1029
ag10
ag26
asVframe
p1030
(lp1031
g21
ag32
aVeI
p1032
ag15
asVfreeze
p1033
(lp1034
g21
ag32
aVi:
p1035
ag12
asVsee
p1036
(lp1037
g10
aVi:
p1038
asVasleep
p1039
(lp1040
Va#
p1041
ag10
ag4
aVi:
p1042
ag87
asVbest
p1043
(lp1044
g31
ag25
ag10
ag26
asVwonder
p1045
(lp1046
g79
ag16
ag17
ag30
ag100
asVcloser
p1047
(lp1048
g62
ag4
aVoU
p1049
ag10
ag100
asVsaid
p1050
(lp1051
g10
ag25
ag30
asVeggleston
p1052
(lp1053
g25
ag36
aV@L
p1054
ag10
ag26
ag41
ag17
asVmotown
p1055
(lp1056
g15
aVoU
p1057
ag26
aVaU
p1058
ag17
asVskrrt
p1059
(lp1060
g25
ag10
ag62
aVeI
p1061
aVA@
p1062
ag32
aVA@
p1063
ag26
aVi:
p1064
asVplease
p1065
(lp1066
g87
ag4
aVi:
p1067
ag12
asVfavor
p1068
(lp1069
g21
aVeI
p1070
ag64
ag100
asVenough
p1071
(lp1072
VI2
p1073
ag17
ag16
ag21
asVfinger
p1074
(lp1075
g21
ag63
ag55
ag36
ag100
asVclosed
p1076
(lp1077
g62
ag4
aVoU
p1078
ag12
ag30
asVdonate
p1079
(lp1080
g30
aVoU
p1081
ag17
aVeI
p1082
ag26
asVacross
p1083
(lp1084
g41
ag62
ag32
ag69
ag10
asVpiss
p1085
(lp1086
g87
ag63
ag10
asVima
p1087
(lp1088
g63
ag15
ag61
asVwe
p1089
(lp1090
g79
aVi:
p1091
asVjobs
p1092
(lp1093
VdZ
p1094
ag69
ag31
ag12
asVgod
p1095
(lp1096
g36
ag69
ag30
asVsmelled
p1097
(lp1098
g10
ag15
ag25
ag4
ag30
asVboss
p1099
(lp1100
g31
ag69
ag10
asVjob
p1101
(lp1102
VdZ
p1103
ag69
ag31
asVspare
p1104
(lp1105
g10
ag87
aVe@
p1106
asVnews
p1107
(lp1108
g17
ag54
aVu:
p1109
ag12
asVcome
p1110
(lp1111
g62
ag16
ag15
asVmany
p1112
(lp1113
g15
ag25
ag17
ag51
asVill
p1114
(lp1115
g63
ag4
asVplayers
p1116
(lp1117
g87
ag4
aVeI
p1118
ag100
ag12
asVtour
p1119
(lp1120
g26
aVU@
p1121
asVsafely
p1122
(lp1123
g10
aVeI
p1124
ag21
ag4
ag51
asVwala
p1125
(lp1126
g79
aVA:
p1127
ag4
ag41
asVpoint
p1128
(lp1129
g87
aVOI
p1130
ag17
ag26
asVgseventeen
p1131
(lp1132
VdZ
p1133
aVi:
p1134
ag10
ag25
ag64
ag41
ag17
ag26
aVi:
p1135
ag17
asVsweet
p1136
(lp1137
g10
ag79
aVi:
p1138
ag26
asVpot
p1139
(lp1140
g87
ag69
ag26
asVlaugh
p1141
(lp1142
g4
aVaa
p1143
ag21
asVtrust
p1144
(lp1145
g26
ag32
ag16
ag10
ag26
asVbingo
p1146
(lp1147
g31
ag63
ag55
ag36
aVoU
p1148
asVlate
p1149
(lp1150
g4
aVeI
p1151
ag26
asVwest
p1152
(lp1153
g79
ag25
ag10
ag26
asVthree
p1154
(lp1155
g18
ag32
aVi:
p1156
asVbeen
p1157
(lp1158
g31
aVi:
p1159
ag17
asVmuch
p1160
(lp1161
g15
ag16
aVtS
p1162
asVdamn
p1163
(lp1164
g30
ag61
ag15
asVcena
p1165
(lp1166
g10
aVi:
p1167
ag17
ag41
asVlife
p1168
(lp1169
g4
aVaI
p1170
ag21
asVlived
p1171
(lp1172
g4
ag63
ag64
ag30
asVfamilies
p1173
(lp1174
g21
ag61
ag15
ag63
ag4
ag51
ag12
asVdrugs
p1175
(lp1176
g30
ag32
ag16
ag36
ag12
asVphotos
p1177
(lp1178
g21
aVoU
p1179
ag26
aVoU
p1180
ag12
asVlives
p1181
(lp1182
g4
aVaI
p1183
ag64
ag12
asVchild
p1184
(lp1185
VtS
p1186
aVaI
p1187
ag4
ag30
asVwedding
p1188
(lp1189
g79
ag25
ag30
ag63
ag55
asVsticky
p1190
(lp1191
g10
ag26
ag63
ag62
ag51
asVcase
p1192
(lp1193
g62
aVeI
p1194
ag10
asVmyself
p1195
(lp1196
g15
aVaI
p1197
ag10
ag25
ag4
ag21
asVhas
p1198
(lp1199
g44
ag61
ag12
asVlanding
p1200
(lp1201
g4
ag61
ag17
ag30
ag63
ag55
asVlook
p1202
(lp1203
g4
ag80
ag62
asVthese
p1204
(lp1205
g107
aVi:
p1206
ag12
asVleave
p1207
(lp1208
g4
aVi:
p1209
ag64
asVcash
p1210
(lp1211
g62
ag61
ag128
asVwhile
p1212
(lp1213
g79
aVaI
p1214
ag4
asVmightve
p1215
(lp1216
g15
aVaI
p1217
ag26
ag64
asVtheres
p1218
(lp1219
g107
ag100
ag12
asVive
p1220
(lp1221
VaI
p1222
ag64
asVplayed
p1223
(lp1224
g87
ag4
aVeI
p1225
ag30
asVis
p1226
(lp1227
g63
ag12
asVpurse
p1228
(lp1229
g87
aV3:
p1230
ag10
asVit
p1231
(lp1232
g63
ag26
asVsleeping
p1233
(lp1234
g10
ag4
aVi:
p1235
ag87
ag63
ag55
asVcant
p1236
(lp1237
g62
aVaa
p1238
ag17
ag26
asVeighteen
p1239
(lp1240
VeI
p1241
ag26
aVi:
p1242
ag17
asVim
p1243
(lp1244
g63
ag15
asVin
p1245
(lp1246
g63
ag17
asVsomebody
p1247
(lp1248
g10
ag16
ag15
ag31
ag69
ag30
ag51
asVrib
p1249
(lp1250
g32
ag63
ag31
asVif
p1251
(lp1252
g63
ag21
asVaged
p1253
(lp1254
VeI
p1255
aVdZ
p1256
ag30
asVpat
p1257
(lp1258
g87
ag61
ag26
asVgrant
p1259
(lp1260
g36
ag32
aVaa
p1261
ag17
ag26
asVpay
p1262
(lp1263
g87
aVeI
p1264
asVtrashing
p1265
(lp1266
g26
ag32
ag61
ag128
ag63
ag55
asVhitlist
p1267
(lp1268
g44
ag63
ag26
ag4
ag63
ag10
ag26
asVsame
p1269
(lp1270
g10
aVeI
p1271
ag15
asVverne
p1272
(lp1273
g64
aV3:
p1274
ag17
asVshit
p1275
(lp1276
g128
ag63
ag26
asVcrains
p1277
(lp1278
g62
ag32
aVeI
p1279
ag17
ag12
asVhigher
p1280
(lp1281
g44
aVaI
p1282
ag100
asVwheel
p1283
(lp1284
g79
aVi:
p1285
ag4
asVmeets
p1286
(lp1287
g15
aVi:
p1288
ag26
ag10
asVused
p1289
(lp1290
g54
aVu:
p1291
ag12
ag30
asVdro
p1292
(lp1293
g30
ag32
aVoU
p1294
asV\u000a
p1295
(lp1296
S'\n'
p1297
asVhang
p1298
(lp1299
g44
ag61
ag55
asVrunning
p1300
(lp1301
g32
ag16
ag17
ag63
ag55
asVstatue
p1302
(lp1303
g10
ag26
ag61
aVtS
p1304
aVu:
p1305
asVwheres
p1306
(lp1307
g79
aVe@
p1308
ag12
asVkid
p1309
(lp1310
g62
ag63
ag30
asg51
(lp1311
VaI
p1312
asVrandom
p1313
(lp1314
g32
ag61
ag17
ag30
ag41
ag15
asVwell
p1315
(lp1316
g79
ag25
ag4
asVthought
p1317
(lp1318
g18
aVO:
p1319
ag26
asVbreeze
p1320
(lp1321
g31
ag32
aVi:
p1322
ag12
asVflags
p1323
(lp1324
g21
ag4
ag61
ag36
ag12
asVthe
p1325
(lp1326
g107
ag41
asVyours
p1327
(lp1328
g54
aVo@
p1329
ag12
asVthey
p1330
(lp1331
g107
aVeI
p1332
asVjust
p1333
(lp1334
VdZ
p1335
ag16
ag10
ag26
asVless
p1336
(lp1337
g4
ag25
ag10
asVrest
p1338
(lp1339
g32
ag25
ag10
ag26
asVfront
p1340
(lp1341
g21
ag32
ag16
ag17
ag26
asVfacts
p1342
(lp1343
g21
ag61
ag62
ag26
ag10
asVyet
p1344
(lp1345
g54
ag25
ag26
asVneedin
p1346
(lp1347
g17
aVi:
p1348
ag30
ag63
ag17
asVnow
p1349
(lp1350
g17
aVaU
p1351
asVcup
p1352
(lp1353
g62
ag16
ag87
asVevanston
p1354
(lp1355
VI2
p1356
ag64
ag61
ag17
ag10
ag26
ag41
ag17
asVquitters
p1357
(lp1358
g62
ag79
ag63
ag26
ag100
ag12
asVverse
p1359
(lp1360
g64
aV3:
p1361
ag10
asVeast
p1362
(lp1363
Vi:
p1364
ag10
ag26
asVgave
p1365
(lp1366
g36
aVeI
p1367
ag64
asVkingdom
p1368
(lp1369
g62
ag63
ag55
ag30
ag41
ag15
asVdoors
p1370
(lp1371
g30
aVo@
p1372
ag12
asVbig
p1373
(lp1374
g31
ag63
ag36
asVadvocate
p1375
(lp1376
g61
ag30
ag64
ag41
ag62
aVeI
p1377
ag26
asVgonna
p1378
(lp1379
g36
ag41
ag17
ag41
asVdark
p1380
(lp1381
g30
aVA@
p1382
ag62
asVhitters
p1383
(lp1384
g44
ag63
ag26
ag100
ag12
asVknow
p1385
(lp1386
g17
aVoU
p1387
asVworld
p1388
(lp1389
g79
aV3:
p1390
ag4
ag30
asVshadow
p1391
(lp1392
g128
ag61
ag30
aVoU
p1393
asVlady
p1394
(lp1395
g4
aVeI
p1396
ag30
ag51
asVlike
p1397
(lp1398
g4
aVaI
p1399
ag62
asVstranger
p1400
(lp1401
g10
ag26
ag32
aVeI
p1402
ag17
aVdZ
p1403
ag100
asVglove
p1404
(lp1405
g36
ag4
ag16
ag64
asVgarage
p1406
(lp1407
g36
ag61
ag32
aVI2
p1408
aVdZ
p1409
asVfatimah
p1410
(lp1411
g21
ag61
ag26
ag63
ag15
ag41
asVlose
p1412
(lp1413
g4
aVu:
p1414
ag12
asVbeverly
p1415
(lp1416
g31
ag25
ag64
ag100
ag4
ag51
asVworks
p1417
(lp1418
g79
aV3:
p1419
ag62
ag10
asVsoft
p1420
(lp1421
g10
ag69
ag21
ag26
asVright
p1422
(lp1423
g32
aVaI
p1424
ag26
asVold
p1425
(lp1426
VoU
p1427
ag4
ag30
asVsomeonell
p1428
(lp1429
g10
ag16
ag15
aVoU
p1430
ag17
aV@L
p1431
asVdeal
p1432
(lp1433
g30
aVi:
p1434
ag4
asVpeople
p1435
(lp1436
g87
aVi:
p1437
ag87
aV@L
p1438
asVtwitter
p1439
(lp1440
g26
ag79
ag63
ag26
ag100
asVsome
p1441
(lp1442
g10
ag16
ag15
asVback
p1443
(lp1444
g31
ag61
ag62
asVdonald
p1445
(lp1446
g30
ag69
ag17
aV@L
p1447
ag30
asVgrowth
p1448
(lp1449
g36
ag32
aVoU
p1450
ag18
asVdoorstep
p1451
(lp1452
g30
aVo@
p1453
ag10
ag26
ag25
ag87
asVfor
p1454
(lp1455
g21
aVO@
p1456
asVbottom
p1457
(lp1458
g31
ag69
ag26
ag41
ag15
asVstops
p1459
(lp1460
g10
ag26
ag69
ag87
ag10
asVeverything
p1461
(lp1462
g25
ag64
ag32
aVI2
p1463
ag18
ag63
ag55
asVwendy
p1464
(lp1465
g79
ag25
ag17
ag30
ag51
asVchristmas
p1466
(lp1467
g62
ag32
ag63
ag10
ag15
ag41
ag10
asVbe
p1468
(lp1469
g31
aVi:
p1470
asVknew
p1471
(lp1472
g17
ag54
aVu:
p1473
asVrun
p1474
(lp1475
g32
ag16
ag17
asVpower
p1476
(lp1477
g87
aVaU
p1478
ag100
asVschedule
p1479
(lp1480
g128
ag25
ag30
ag54
aVu:
p1481
ag4
asVnight
p1482
(lp1483
g17
aVaI
p1484
ag26
asVstep
p1485
(lp1486
g10
ag26
ag25
ag87
asVprotagonist
p1487
(lp1488
g87
ag32
aVoU
p1489
ag26
aVa#
p1490
ag36
ag41
ag17
ag63
ag10
ag26
asVsanta
p1491
(lp1492
g10
aVaa
p1493
ag17
ag26
ag41
asVfrom
p1494
(lp1495
g21
ag32
ag69
ag15
asVby
p1496
(lp1497
g31
aVaI
p1498
asVbeaches
p1499
(lp1500
g31
aVi:
p1501
aVtS
p1502
aVI2
p1503
ag12
asVon
p1504
(lp1505
g69
ag17
asVsister
p1506
(lp1507
g10
ag63
ag10
ag26
ag100
asVwouldnt
p1508
(lp1509
g79
ag80
ag30
ag17
ag26
asVoh
p1510
(lp1511
VoU
p1512
asVof
p1513
(lp1514
g69
ag64
asVohoh
p1515
(lp1516
VoU
p1517
ag44
aVoU
p1518
asVdibs
p1519
(lp1520
g30
ag63
ag31
ag12
asVswear
p1521
(lp1522
g10
ag79
aVe@
p1523
asVyouve
p1524
(lp1525
g54
aVu:
p1526
ag64
asVsixtyfiveth
p1527
(lp1528
g10
ag63
ag62
ag10
ag26
ag63
ag21
aVaI
p1529
ag64
ag41
ag18
asVwanna
p1530
(lp1531
g79
ag69
ag17
ag41
asVraised
p1532
(lp1533
g32
aVeI
p1534
ag12
ag30
asVwhats
p1535
(lp1536
g79
ag69
ag26
ag10
asVjingles
p1537
(lp1538
VdZ
p1539
ag63
ag55
ag36
aV@L
p1540
ag12
asVinto
p1541
(lp1542
g63
ag17
ag26
ag80
asVyoud
p1543
(lp1544
g54
aVaU
p1545
ag30
asVdown
p1546
(lp1547
g30
aVaU
p1548
ag17
asVnigga
p1549
(lp1550
g17
ag63
ag36
ag41
asVcouldnt
p1551
(lp1552
g62
ag80
ag30
ag17
ag26
asVyour
p1553
(lp1554
g54
aVO@
p1555
asVmurderers
p1556
(lp1557
g15
aV3:
p1558
ag30
ag100
ag32
ag353
ag100
ag12
asVstare
p1559
(lp1560
g10
ag26
aVe@
p1561
asVsonny
p1562
(lp1563
g10
ag16
ag17
ag63
asVher
p1564
(lp1565
g44
aV3:
p1566
asVsupport
p1567
(lp1568
g10
ag41
ag87
aVo@
p1569
ag26
asVthere
p1570
(lp1571
g107
aVe@
p1572
asVquestion
p1573
(lp1574
g62
ag79
ag25
ag10
aVtS
p1575
ag41
ag17
asVlong
p1576
(lp1577
g4
ag69
ag55
asVkidding
p1578
(lp1579
g62
ag63
ag30
ag63
ag55
asVstuck
p1580
(lp1581
g10
ag26
ag16
ag62
asVdevelopment
p1582
(lp1583
g30
aVI2
p1584
ag64
ag25
ag4
ag41
ag87
ag15
ag41
ag17
ag26
asVstars
p1585
(lp1586
g10
ag26
aVA@
p1587
ag12
asVwas
p1588
(lp1589
g79
ag69
ag12
asVtight
p1590
(lp1591
g26
aVaI
p1592
ag26
asVhead
p1593
(lp1594
g44
ag25
ag30
asVbuy
p1595
(lp1596
g31
aVaI
p1597
asVwondering
p1598
(lp1599
g79
ag16
ag17
ag30
ag100
ag32
ag353
ag63
ag55
asVoffer
p1600
(lp1601
g69
ag21
ag100
asVrauner
p1602
(lp1603
g32
aVO:
p1604
ag17
ag100
asVfireworks
p1605
(lp1606
g21
aVaI@
p1607
ag79
aV3:
p1608
ag62
ag10
asVaquafina
p1609
(lp1610
g61
ag62
ag79
aVa#
p1611
ag21
aVaI
p1612
ag17
ag41
asVforgetful
p1613
(lp1614
g21
ag100
ag36
ag25
ag26
ag21
aV@L
p1615
asVfore
p1616
(lp1617
g21
aVO@
p1618
asVcabinet
p1619
(lp1620
g62
ag61
ag31
aVI2
p1621
ag17
ag41
ag26
asVfufuck
p1622
(lp1623
g21
ag54
aVu:
p1624
ag21
ag16
ag62
asVdidnt
p1625
(lp1626
g30
ag63
ag30
ag17
ag26
asVline
p1627
(lp1628
g4
aVaI
p1629
ag17
asVwith
p1630
(lp1631
g79
ag63
ag107
asVeat
p1632
(lp1633
Vi:
p1634
ag26
asVhe
p1635
(lp1636
g44
aVi:
p1637
asVhire
p1638
(lp1639
g44
aVaI@
p1640
asVdarken
p1641
(lp1642
g30
aVA@
p1643
ag62
ag41
ag17
asVinside
p1644
(lp1645
g63
ag17
ag10
aVaI
p1646
ag30
asVfries
p1647
(lp1648
g21
ag32
aVaI
p1649
ag12
asVlitter
p1650
(lp1651
g4
ag63
ag26
ag100
asVconvince
p1652
(lp1653
g62
ag41
ag17
ag64
ag63
ag17
ag10
asVdaddy
p1654
(lp1655
g30
ag61
ag30
ag51
asVvideos
p1656
(lp1657
g64
ag63
ag30
aVI2
p1658
ag353
aVoU
p1659
ag12
asVup
p1660
(lp1661
g16
ag87
asVtoss
p1662
(lp1663
g26
ag69
ag10
asVmoved
p1664
(lp1665
g15
aVu:
p1666
ag64
ag30
asVrahm
p1667
(lp1668
g32
aVA:
p1669
ag15
asVan
p1670
(lp1671
g61
ag17
asVsingle
p1672
(lp1673
g10
ag63
ag55
ag36
aV@L
p1674
asVar
p1675
(lp1676
VA@
p1677
asVat
p1678
(lp1679
g61
ag26
asVfuuuuuuck
p1680
(lp1681
g21
aVu:
p1682
aVu:
p1683
aVu:
p1684
ag62
asVprayer
p1685
(lp1686
g87
ag32
aVe@
p1687
asVas
p1688
(lp1689
g61
ag12
asVvisitin
p1690
(lp1691
g64
ag63
ag12
ag63
ag26
ag63
ag17
asVtheyll
p1692
(lp1693
g18
aVeI
p1694
ag4
asVno
p1695
(lp1696
g17
aVoU
p1697
asVnot
p1698
(lp1699
g17
ag69
ag26
asVway
p1700
(lp1701
g79
aVeI
p1702
asVpeace
p1703
(lp1704
g87
aVi:
p1705
ag10
asVwhen
p1706
(lp1707
g79
ag25
ag17
asVtil
p1708
(lp1709
g26
ag63
ag4
asVfire
p1710
(lp1711
g21
aVaI@
p1712
asVother
p1713
(lp1714
g16
ag107
ag100
asVcocaptain
p1715
(lp1716
g62
ag69
ag62
aVa#
p1717
ag87
ag26
ag63
ag17
asVyou
p1718
(lp1719
g54
aVu:
p1720
asVout
p1721
(lp1722
VaU
p1723
ag26
asVnice
p1724
(lp1725
g17
aVaI
p1726
ag10
asVtwentyfive
p1727
(lp1728
g26
ag79
ag25
ag17
ag26
ag63
ag21
aVaI
p1729
ag64
asVplate
p1730
(lp1731
g87
ag4
aVeI
p1732
ag26
asVpapa
p1733
(lp1734
g87
aVa#
p1735
ag87
aVA:
p1736
asVstay
p1737
(lp1738
g10
ag26
aVeI
p1739
asVgifts
p1740
(lp1741
g36
ag63
ag21
ag26
ag10
asVjourney
p1742
(lp1743
VdZ
p1744
aV3:
p1745
ag17
ag51
asVyounger
p1746
(lp1747
g54
ag16
ag55
ag36
ag100
asVlead
p1748
(lp1749
g4
aVi:
p1750
ag30
asVgainin
p1751
(lp1752
g36
aVeI
p1753
ag17
ag63
ag17
asVheath
p1754
(lp1755
g44
aVi:
p1756
ag18
asVhella
p1757
(lp1758
g44
ag25
ag4
ag41
asVtime
p1759
(lp1760
g26
aVaI
p1761
ag15
asVwake
p1762
(lp1763
g79
aVeI
p1764
ag62
asVstrings
p1765
(lp1766
g10
ag26
ag32
ag63
ag55
ag12
asVonce
p1767
(lp1768
g79
ag16
ag17
ag10
as(lp1769
g353
aVaa
p1770
aVA@
p1771
aV\u000a
p1772
aVtS
p1773
aV@L
p1774
aVe@
p1775
aVO:
p1776
aVO@
p1777
ag984
aVeI
p1778
aVu:
p1779
aVaI
p1780
aVI2
p1781
aVOI
p1782
ag69
ag100
aVaU
p1783
aVi@
p1784
aVA:
p1785
aVaI@
p1786
ag41
aVa#
p1787
aVi:
p1788
ag25
ag107
ag63
aVo@
p1789
ag128
ag80
ag18
ag16
aVi@3
p1790
aVoU
p1791
ag55
ag61
aV3:
p1792
ag31
ag30
ag36
ag21
ag51
ag44
ag62
ag54
ag15
ag4
ag17
ag87
ag10
ag32
aVdZ
p1793
ag26
ag79
ag64
ag12
aVU@
p1794
atp1795
.