((dp0
Vtodays
p1
(lp2
Vt
p3
aV@
p4
aVd
p5
aVeI
p6
aVz
p7
asVgiorgio
p8
(lp9
VdZ
p10
aVI2
p11
aV
p12
aVo@
p13
aVdZ
p14
aVI2
p15
ag12
aVoU
p16
asVmagnetic
p17
(lp18
Vm
p19
aVa
p20
aVg
p21
aVn
p22
aVE
p23
ag3
aVI
p24
aVk
p25
asVall
p26
(lp27
VO:
p28
aVl
p29
asVyellow
p30
(lp31
Vj
p32
ag23
ag29
aVoU
p33
asVfour
p34
(lp35
Vf
p36
aVo@
p37
asVsleep
p38
(lp39
Vs
p40
ag29
aVi:
p41
aVp
p42
asVasian
p43
(lp44
VeI
p45
aVZ
p46
ag4
ag22
asVhanging
p47
(lp48
Vh
p49
ag20
aVN
p50
ag24
ag50
asVscheming
p51
(lp52
g40
ag25
aVi:
p53
ag19
ag24
ag50
asVappetite
p54
(lp55
g20
ag42
aVI2
p56
ag3
aVaI
p57
ag3
asVcaptain
p58
(lp59
g25
ag20
ag42
ag3
ag24
ag22
asVhate
p60
(lp61
g49
aVeI
p62
ag3
asVskeleton
p63
(lp64
g40
ag25
ag23
ag29
aVI2
p65
ag3
ag4
ag22
asVdrinkin
p66
(lp67
g5
aVr
p68
ag24
ag50
ag25
ag24
ag22
asVwhose
p69
(lp70
g49
aVu:
p71
ag7
asVbuddy
p72
(lp73
Vb
p74
aVV
p75
ag5
aVi
p76
asVarmanis
p77
(lp78
VA@
p79
ag19
aVA:
p80
ag22
ag76
ag7
asVcollapsin
p81
(lp82
g25
ag4
ag29
ag20
ag42
ag40
ag24
ag22
asVsamoans
p83
(lp84
g40
ag20
ag19
aVoU
p85
ag22
ag7
asVunder
p86
(lp87
g75
ag22
ag5
aV3
p88
asVceenotes
p89
(lp90
g40
aVi:
p91
ag22
aVoU
p92
ag3
ag40
asVlord
p93
(lp94
g29
aVO@
p95
ag5
asVpride
p96
(lp97
g42
ag68
aVaI
p98
ag5
asVworth
p99
(lp100
Vw
p101
aV3:
p102
aVT
p103
asVcarried
p104
(lp105
g25
ag20
ag68
ag76
ag5
asVfists
p106
(lp107
g36
ag24
ag40
ag3
ag40
asVcallin
p108
(lp109
g25
aVO:
p110
ag29
aVI2
p111
ag22
asVrisk
p112
(lp113
g68
ag24
ag40
ag25
asVcompassion
p114
(lp115
g25
ag4
ag19
ag42
ag20
aVS
p116
ag4
ag22
asVrise
p117
(lp118
g68
aVaI
p119
ag7
asVdell
p120
(lp121
g5
ag23
ag29
asVdistort
p122
(lp123
g5
aVI2
p124
ag40
ag3
aVO@
p125
ag3
asVfishbowl
p126
(lp127
g36
ag24
ag116
ag74
aVoU
p128
ag29
asVevery
p129
(lp130
g23
aVv
p131
ag68
aVI2
p132
asVjack
p133
(lp134
VdZ
p135
ag20
ag25
asVspecial
p136
(lp137
g40
ag42
ag23
ag116
aV@L
p138
asVlook
p139
(lp140
g29
aVU
p141
ag25
asVclovers
p142
(lp143
g25
ag29
aVoU
p144
ag131
ag88
ag7
asVschool
p145
(lp146
g40
ag25
aVu:
p147
ag29
asVbaking
p148
(lp149
g74
aVeI
p150
ag25
ag24
ag50
asVcharmin
p151
(lp152
VtS
p153
aVA@
p154
ag19
ag24
ag22
asVskills
p155
(lp156
g40
ag25
ag24
ag29
ag7
asVcasinos
p157
(lp158
g25
aVa#
p159
ag40
aVi:
p160
ag22
aVoU
p161
ag7
asVdingdong
p162
(lp163
g5
ag24
ag50
ag5
aV0
p164
ag50
asVflashy
p165
(lp166
g36
ag29
ag20
ag116
ag76
asVpoppy
p167
(lp168
g42
ag164
ag42
ag76
asVups
p169
(lp170
g75
ag42
ag40
asVclothes
p171
(lp172
g25
ag29
aVoU
p173
aVD
p174
ag7
asVcreepin
p175
(lp176
g25
ag68
aVi:
p177
ag42
ag24
ag22
asVambulence
p178
(lp179
g20
ag19
ag74
ag32
ag141
ag29
ag4
ag22
ag40
asVleaders
p180
(lp181
g29
aVi:
p182
ag5
ag88
ag7
asVcorvette
p183
(lp184
g25
aVO@
p185
ag131
ag23
ag3
asVphones
p186
(lp187
g36
aVoU
p188
ag22
ag7
asVladada
p189
(lp190
g29
ag20
ag5
aVA:
p191
ag5
ag4
asVtires
p192
(lp193
g3
aVaI@
p194
ag7
asVelegant
p195
(lp196
g23
ag29
ag24
ag21
ag4
ag22
ag3
asVgator
p197
(lp198
g21
aVeI
p199
ag3
ag88
asVstreet
p200
(lp201
g40
ag3
ag68
aVi:
p202
ag3
asVhelluva
p203
(lp204
g49
ag23
ag29
ag4
ag131
ag4
asVgoofys
p205
(lp206
g21
aVu:
p207
ag36
ag76
ag7
asVmachines
p208
(lp209
g19
ag4
ag116
aVi:
p210
ag22
ag7
asVblue
p211
(lp212
g74
ag29
aVu:
p213
asVaim
p214
(lp215
VeI
p216
ag19
asVvistin
p217
(lp218
g131
ag24
ag40
ag3
ag24
ag22
asVwreck
p219
(lp220
g68
ag23
ag25
asVthunder
p221
(lp222
g103
ag75
ag22
ag5
ag88
asVfingers
p223
(lp224
g36
ag24
ag50
ag21
ag88
ag7
asVlights
p225
(lp226
g29
aVaI
p227
ag3
ag40
asVpetro
p228
(lp229
g42
ag23
ag3
ag68
aVoU
p230
asVglaciers
p231
(lp232
g21
ag29
aVeI
p233
ag116
ag88
ag7
asVsideways
p234
(lp235
g40
aVaI
p236
ag5
ag101
aVeI
p237
ag7
asVscheamin
p238
(lp239
g116
aVi:
p240
ag19
ag24
ag22
asVnew
p241
(lp242
g22
ag32
aVu:
p243
asVever
p244
(lp245
g23
ag131
ag88
asVtold
p246
(lp247
g3
aVoU
p248
ag29
ag5
asVpiranhas
p249
(lp250
g42
ag4
ag68
aVA:
p251
ag22
ag4
ag7
asVsevens
p252
(lp253
g40
ag23
ag131
ag4
ag22
ag7
asVwoozy
p254
(lp255
g101
aVu:
p256
ag7
ag76
asVmel
p257
(lp258
g19
ag23
ag29
asVdeadbeat
p259
(lp260
g5
ag23
ag5
ag74
aVi:
p261
ag3
asVnever
p262
(lp263
g22
ag23
ag131
ag88
asVhere
p264
(lp265
g49
aVi@3
p266
asVmet
p267
(lp268
g19
ag23
ag3
asVchina
p269
(lp270
VtS
p271
aVaI
p272
ag22
ag4
asVsmokin
p273
(lp274
g40
ag19
ag164
ag25
ag24
ag22
asVviolate
p275
(lp276
g131
aVaI@
p277
ag29
aVeI
p278
ag3
asVdry
p279
(lp280
g5
ag68
aVaI
p281
asVluther
p282
(lp283
g29
aVu:
p284
ag174
ag88
asVkids
p285
(lp286
g25
ag24
ag5
ag7
asVdaughter
p287
(lp288
g5
aVO:
p289
ag3
ag88
asVhunting
p290
(lp291
g49
ag75
ag22
ag3
ag24
ag50
asVauction
p292
(lp293
VO:
p294
ag25
ag116
ag4
ag22
asVchanged
p295
(lp296
VtS
p297
aVeI
p298
ag22
aVdZ
p299
ag5
asVwalkin
p300
(lp301
g101
aVO:
p302
ag25
ag24
ag22
asVpowermoves
p303
(lp304
g42
aVaU
p305
ag88
ag19
aVu:
p306
ag131
ag7
asVsmoke
p307
(lp308
g40
ag19
aVoU
p309
ag25
asVstressed
p310
(lp311
g40
ag3
ag68
ag23
ag40
ag3
asVaka
p312
(lp313
g20
ag25
aVa#
p314
asVtheres
p315
(lp316
g174
ag88
ag7
asVsettled
p317
(lp318
g40
ag23
ag3
aV@L
p319
ag5
asVyork
p320
(lp321
g32
aVO@
p322
ag25
asVdivide
p323
(lp324
g5
aVI2
p325
ag131
aVaI
p326
ag5
asVstrat
p327
(lp328
g40
ag3
ag68
ag20
ag3
asVseven
p329
(lp330
g40
ag23
ag131
ag4
ag22
asVhighly
p331
(lp332
g49
aVaI
p333
ag29
ag76
asVbrought
p334
(lp335
g74
ag68
aVO:
p336
ag3
asVpatience
p337
(lp338
g42
aVeI
p339
ag116
ag4
ag22
ag40
asVninety
p340
(lp341
g22
aVaI
p342
ag22
ag3
ag76
asVjackets
p343
(lp344
VdZ
p345
ag20
ag25
aVI2
p346
ag3
ag40
asVstand
p347
(lp348
g40
ag3
ag20
ag22
ag5
asVcocaine
p349
(lp350
g25
aVoU
p351
ag25
aVeI
p352
ag22
asVlandscape
p353
(lp354
g29
ag20
ag22
ag5
ag40
ag25
aVeI
p355
ag42
asVplot
p356
(lp357
g42
ag29
ag164
ag3
asVspoke
p358
(lp359
g40
ag42
aVoU
p360
ag25
asVwould
p361
(lp362
g101
ag141
ag5
asVarmy
p363
(lp364
VA@
p365
ag19
ag76
asVfound
p366
(lp367
g36
aVaU
p368
ag22
ag5
asVhospital
p369
(lp370
g49
ag164
ag40
ag42
ag24
ag3
aV@L
p371
asVcrowning
p372
(lp373
g25
ag68
aVaU
p374
ag22
ag24
ag50
asVarms
p375
(lp376
VA@
p377
ag19
ag7
asVtenders
p378
(lp379
g3
ag23
ag22
ag5
ag88
ag7
asVcali
p380
(lp381
g25
aVA:
p382
ag29
ag76
asVasses
p383
(lp384
g20
ag40
aVI2
p385
ag7
asVcall
p386
(lp387
g25
aVO:
p388
ag29
asVploo
p389
(lp390
g42
ag29
aVu:
p391
asVtryin
p392
(lp393
g3
ag68
aVaI
p394
ag24
ag22
asVtype
p395
(lp396
g3
aVaI
p397
ag42
asVuntil
p398
(lp399
g75
ag22
ag3
ag24
ag29
asVfractions
p400
(lp401
g36
ag68
ag20
ag25
ag116
ag4
ag22
ag7
asVkgr
p402
(lp403
g25
aVeI
p404
aVdZ
p405
aVi:
p406
ag12
aVA@
p407
asVpimpin
p408
(lp409
g42
ag24
ag19
ag42
ag24
ag22
asVkillas
p410
(lp411
g25
ag24
ag29
ag4
ag7
asVbrings
p412
(lp413
g74
ag68
ag24
ag50
ag7
asVphony
p414
(lp415
g36
aVoU
p416
ag22
ag76
asVreign
p417
(lp418
g68
aVeI
p419
ag22
asVhurt
p420
(lp421
g49
aV3:
p422
ag3
asVglass
p423
(lp424
g21
ag29
aVaa
p425
ag40
asVbackwards
p426
(lp427
g74
ag20
ag25
ag101
ag88
ag5
ag7
asVninetysix
p428
(lp429
g22
aVaI
p430
ag22
ag3
ag24
ag40
ag24
ag25
ag40
asVbangles
p431
(lp432
g74
ag20
ag50
ag21
aV@L
p433
ag7
asVhole
p434
(lp435
g49
aVoU
p436
ag29
asVhold
p437
(lp438
g49
aVoU
p439
ag29
ag5
asVlistenin
p440
(lp441
g29
ag24
ag40
ag3
ag4
ag22
ag24
ag22
asVword
p442
(lp443
g101
aV3:
p444
ag5
asVroom
p445
(lp446
g68
aVu:
p447
ag19
asVmc
p448
(lp449
g23
ag19
ag40
aVi:
p450
asVpursue
p451
(lp452
g42
ag88
ag40
ag32
aVu:
p453
asVblitz
p454
(lp455
g74
ag29
ag24
ag3
ag40
asVmo
p456
(lp457
g19
aVoU
p458
asVwork
p459
(lp460
g101
aV3:
p461
ag25
asVroof
p462
(lp463
g68
aVu:
p464
ag36
asVmovies
p465
(lp466
g19
aVu:
p467
ag131
ag24
ag7
asVcuddle
p468
(lp469
g25
ag75
ag5
aV@L
p470
asVera
p471
(lp472
Vi@
p473
ag68
ag4
asVfakin
p474
(lp475
g36
ag20
ag25
ag24
ag22
asVentertainer
p476
(lp477
g23
ag22
ag3
ag4
ag3
aVeI
p478
ag22
ag88
asVmy
p479
(lp480
g19
aVaI
p481
asVcould
p482
(lp483
g25
ag141
ag5
asVfortress
p484
(lp485
g36
aVO@
p486
ag3
ag68
ag4
ag40
asVshook
p487
(lp488
g116
ag141
ag25
asVsinking
p489
(lp490
g40
ag24
ag50
ag25
ag24
ag50
asVmelons
p491
(lp492
g19
ag23
ag29
ag4
ag22
ag7
asVscars
p493
(lp494
g40
ag25
aVA@
p495
ag7
asVbell
p496
(lp497
g74
ag23
ag29
asVgive
p498
(lp499
g21
ag24
ag131
asVloosed
p500
(lp501
g29
aVu:
p502
ag40
ag3
asVpunk
p503
(lp504
g42
ag75
ag50
ag25
asVnozzle
p505
(lp506
g22
ag164
ag7
aV@L
p507
asVhoney
p508
(lp509
g49
ag75
ag22
ag76
asVmayhem
p510
(lp511
g19
aVeI
p512
ag49
ag23
ag19
asVhomie
p513
(lp514
g49
aVoU
p515
ag19
ag76
asVwant
p516
(lp517
g101
ag164
ag22
ag3
asVcookers
p518
(lp519
g25
ag141
ag25
ag88
ag7
asVsupplyin
p520
(lp521
g40
ag4
ag42
ag29
aVaI
p522
ag24
ag22
asVkeep
p523
(lp524
g25
aVi:
p525
ag42
asVmotion
p526
(lp527
g19
aVoU
p528
ag116
ag4
ag22
asVhoe
p529
(lp530
g49
aVoU
p531
asVend
p532
(lp533
g23
ag22
ag5
asVturn
p534
(lp535
g3
aV3:
p536
ag22
asVtravel
p537
(lp538
g3
ag68
ag20
ag131
aV@L
p539
asVpuzzled
p540
(lp541
g42
ag75
ag7
aV@L
p542
ag5
asVnuts
p543
(lp544
g22
ag75
ag3
ag40
asVintruders
p545
(lp546
g24
ag22
ag3
ag68
aVu:
p547
ag5
ag88
ag7
asVgats
p548
(lp549
g21
ag20
ag3
ag40
asVmachine
p550
(lp551
g19
ag4
ag116
aVi:
p552
ag22
asVhow
p553
(lp554
g49
aVaU
p555
asVhot
p556
(lp557
g49
ag164
ag3
asVhos
p558
(lp559
g49
aVoU
p560
ag7
asVsweared
p561
(lp562
g40
ag101
aVe@
p563
ag5
asVinterview
p564
(lp565
g24
ag22
ag3
ag88
ag131
ag32
aVu:
p566
asVgate
p567
(lp568
g21
aVeI
p569
ag3
asVbeach
p570
(lp571
g74
aVi:
p572
aVtS
p573
asVspesh
p574
(lp575
g40
ag42
ag23
ag116
asVoceans
p576
(lp577
VoU
p578
ag116
ag4
ag22
ag7
asVmouths
p579
(lp580
g19
aVaU
p581
ag174
ag7
asVbecks
p582
(lp583
g74
ag23
ag25
ag40
asVafter
p584
(lp585
Vaa
p586
ag36
ag3
ag88
asVvicious
p587
(lp588
g131
ag24
ag116
ag4
ag40
asVlump
p589
(lp590
g29
ag75
ag19
ag42
asVpimps
p591
(lp592
g42
ag24
ag19
ag42
ag40
asVwrong
p593
(lp594
g68
ag164
ag50
asVlay
p595
(lp596
g29
aVeI
p597
asVgirbauds
p598
(lp599
g21
aV3:
p600
ag74
aVO:
p601
ag5
ag7
asVarrivin
p602
(lp603
Va#
p604
ag68
ag24
ag131
ag24
ag22
asVsixshooter
p605
(lp606
g40
ag24
ag25
ag40
ag116
aVu:
p607
ag3
ag88
asVguzzlin
p608
(lp609
g21
ag75
ag7
ag29
ag24
ag22
asVmargaritas
p610
(lp611
g19
aVA@
p612
ag21
ag88
ag68
aVi:
p613
ag3
ag4
ag7
asVattempt
p614
(lp615
Va#
p616
ag3
ag23
ag19
ag42
ag3
asVyanking
p617
(lp618
g32
ag20
ag50
ag25
ag24
ag50
asVchildhood
p619
(lp620
VtS
p621
aVaI
p622
ag29
ag5
ag49
ag141
ag5
asVmaintain
p623
(lp624
g19
aVeI
p625
ag22
ag3
aVeI
p626
ag22
asVgreen
p627
(lp628
g21
ag68
aVi:
p629
ag22
asVultimate
p630
(lp631
g75
ag29
ag3
aVI2
p632
ag19
ag4
ag3
asVenter
p633
(lp634
g23
ag22
ag3
ag88
asVcrackin
p635
(lp636
g25
ag68
ag20
ag25
ag24
ag22
asVfirst
p637
(lp638
g36
aV3:
p639
ag40
ag3
asVrastas
p640
(lp641
g68
aVaa
p642
ag40
ag3
ag4
ag7
asVmake
p643
(lp644
g19
aVeI
p645
ag25
asVmacks
p646
(lp647
g19
ag20
ag25
ag40
asVexotic
p648
(lp649
g23
ag21
ag7
ag164
ag3
ag24
ag25
asVfetus
p650
(lp651
g36
aVi:
p652
ag3
ag4
ag40
asVover
p653
(lp654
VoU
p655
ag131
ag88
asVfam
p656
(lp657
g36
ag20
ag19
asVpound
p658
(lp659
g42
aVaU
p660
ag22
ag5
asVwesterns
p661
(lp662
g101
ag23
ag40
ag3
ag88
ag22
ag7
asVsniffle
p663
(lp664
g40
ag22
ag24
ag36
aV@L
p665
asVjacuzzi
p666
(lp667
VdZ
p668
ag4
ag25
aVu:
p669
ag7
ag76
asVdoublefours
p670
(lp671
g5
ag75
ag74
aV@L
p672
ag36
ag88
ag7
asVfellas
p673
(lp674
g36
ag23
ag29
ag4
ag7
asVmayor
p675
(lp676
g19
aVe@
p677
asVbefore
p678
(lp679
g74
aVI2
p680
ag36
aVo@
p681
asVima
p682
(lp683
g24
ag19
ag20
asVsarasotam
p684
(lp685
g40
ag20
ag68
aVa#
p686
ag40
ag164
ag3
ag20
ag19
asVfit
p687
(lp688
g36
ag24
ag3
asVhypocrisy
p689
(lp690
g49
ag24
ag42
ag164
ag25
ag68
ag4
ag40
ag76
asVsomewhere
p691
(lp692
g40
ag75
ag19
ag101
aVe@
p693
asVstingrays
p694
(lp695
g40
ag3
ag24
ag50
ag21
ag68
aVeI
p696
ag7
asVfix
p697
(lp698
g36
ag24
ag25
ag40
asVtwitter
p699
(lp700
g3
ag101
ag24
ag3
ag88
asVcrew
p701
(lp702
g25
ag68
aVu:
p703
asVsurvivors
p704
(lp705
g40
ag88
ag131
aVaI
p706
ag131
ag88
ag7
asVrepper
p707
(lp708
g68
ag23
ag42
ag88
asVthen
p709
(lp710
g174
ag23
ag22
asVthem
p711
(lp712
g174
ag23
ag19
asVgunning
p713
(lp714
g21
ag75
ag22
ag24
ag50
asVsafe
p715
(lp716
g40
aVeI
p717
ag36
asVdisturb
p718
(lp719
g5
aVI2
p720
ag40
ag3
aV3:
p721
ag74
asVfinish
p722
(lp723
g36
ag24
ag22
ag24
ag116
asVcuties
p724
(lp725
g25
ag32
aVu:
p726
ag3
ag76
ag7
asVbreak
p727
(lp728
g74
ag68
aVeI
p729
ag25
asVbang
p730
(lp731
g74
ag20
ag50
asVpenetration
p732
(lp733
g42
ag23
ag22
aVI2
p734
ag3
ag68
aVeI
p735
ag116
ag4
ag22
asVsack
p736
(lp737
g40
ag20
ag25
asVthey
p738
(lp739
g174
aVeI
p740
asVyourself
p741
(lp742
g32
aVo@
p743
ag40
ag23
ag29
ag36
asVsilver
p744
(lp745
g40
ag24
ag29
ag131
ag88
asVpjs
p746
(lp747
g42
aVi:
p748
aVdZ
p749
aVeI
p750
ag23
ag40
asVxeight
p751
(lp752
g7
aVeI
p753
ag3
asVstinking
p754
(lp755
g40
ag3
ag24
ag50
ag25
ag24
ag50
asVmeat
p756
(lp757
g19
aVi:
p758
ag3
asVsuana
p759
(lp760
g40
ag32
aVu:
p761
aVA:
p762
ag22
ag4
asVpotatoes
p763
(lp764
g42
ag4
ag3
aVeI
p765
ag3
aVoU
p766
ag7
asVarrested
p767
(lp768
Va#
p769
ag68
ag23
ag40
ag3
aVI2
p770
ag5
asVrocks
p771
(lp772
g68
ag164
ag25
ag40
asVexplode
p773
(lp774
g23
ag25
ag40
ag42
ag29
aVoU
p775
ag5
asVholdin
p776
(lp777
g49
aVoU
p778
ag29
ag5
ag24
ag22
asVeach
p779
(lp780
Vi:
p781
aVtS
p782
asVaddicted
p783
(lp784
Va#
p785
ag5
ag24
ag25
ag3
aVI2
p786
ag5
asVwent
p787
(lp788
g101
ag23
ag22
ag3
asVbells
p789
(lp790
g74
ag23
ag29
ag7
asVside
p791
(lp792
g40
aVaI
p793
ag5
asVbone
p794
(lp795
g74
aVoU
p796
ag22
asVmean
p797
(lp798
g19
aVi:
p799
ag22
asVimprovise
p800
(lp801
g24
ag19
ag42
ag68
ag4
ag131
aVaI
p802
ag7
asVlifted
p803
(lp804
g29
ag24
ag36
ag3
aVI2
p805
ag5
asVhanger
p806
(lp807
g49
ag20
ag50
ag88
asVsnakes
p808
(lp809
g40
ag22
aVeI
p810
ag25
ag40
asVhallway
p811
(lp812
g49
aVO:
p813
ag29
ag101
aVeI
p814
asVdumping
p815
(lp816
g5
ag75
ag19
ag42
ag24
ag50
asVturnin
p817
(lp818
g3
aV3:
p819
ag22
ag24
ag22
asVcabanas
p820
(lp821
g25
ag20
ag74
aVA:
p822
ag22
ag4
ag7
asVrainin
p823
(lp824
g68
aVeI
p825
ag22
ag24
ag22
asVskins
p826
(lp827
g40
ag25
ag24
ag22
ag7
asVused
p828
(lp829
g32
aVu:
p830
ag7
ag5
asVdownplayed
p831
(lp832
g5
aVaU
p833
ag22
ag42
ag29
aVeI
p834
ag5
asVnavy
p835
(lp836
g22
aVeI
p837
ag131
ag76
asVmandated
p838
(lp839
g19
ag20
ag22
ag5
aVeI
p840
ag3
aVI2
p841
ag5
asVring
p842
(lp843
g68
ag24
ag50
asVwhip
p844
(lp845
g101
ag24
ag42
asVgon
p846
(lp847
g21
ag164
ag22
asVlair
p848
(lp849
g29
aVe@
p850
asVswellin
p851
(lp852
g40
ag101
ag23
ag29
aVI2
p853
ag22
asVsatans
p854
(lp855
g40
aVeI
p856
ag3
ag4
ag22
ag7
asVsluts
p857
(lp858
g40
ag29
ag75
ag3
ag40
asVgod
p859
(lp860
g21
ag164
ag5
asVtales
p861
(lp862
g3
aVeI
p863
ag29
ag7
asVcameras
p864
(lp865
g25
ag20
ag19
ag4
ag12
ag68
ag4
ag7
asVforty
p866
(lp867
g36
aVO@
p868
ag3
ag76
asVgeorge
p869
(lp870
VdZ
p871
aVO@
p872
aVdZ
p873
asVparticles
p874
(lp875
g42
aVA@
p876
ag3
ag24
ag25
aV@L
p877
ag7
asVsaddam
p878
(lp879
g40
ag20
ag5
ag4
ag19
asVlaid
p880
(lp881
g29
aVeI
p882
ag5
asVslinger
p883
(lp884
g40
ag29
ag24
ag50
ag21
ag88
asVtroopersll
p885
(lp886
g3
ag68
aVu:
p887
ag42
ag88
ag40
ag29
aV@L
p888
asVgot
p889
(lp890
g21
ag164
ag3
asVmillions
p891
(lp892
g19
ag24
ag29
aVi@
p893
ag22
ag7
asVforth
p894
(lp895
g36
aVO@
p896
ag103
asVproposin
p897
(lp898
g42
ag68
ag4
ag42
ag164
ag40
ag24
ag22
asVfortyfive
p899
(lp900
g36
aVO@
p901
ag3
ag24
ag36
aVaI
p902
ag131
asVhang
p903
(lp904
g49
ag20
ag50
asVfree
p905
(lp906
g36
ag68
aVi:
p907
asVfred
p908
(lp909
g36
ag68
ag23
ag5
asVthieves
p910
(lp911
g103
aVi:
p912
ag131
ag7
asVputty
p913
(lp914
g42
ag75
ag3
ag76
asVvets
p915
(lp916
g131
ag23
ag3
ag40
asVamadeus
p917
(lp918
g20
ag19
ag20
ag5
aVI2
p919
ag12
ag4
ag40
asVhoodie
p920
(lp921
g49
ag141
ag5
ag76
asVrakims
p922
(lp923
g68
ag20
ag25
aVI2
p924
ag19
ag7
asVwanted
p925
(lp926
g101
ag164
ag22
ag3
aVI2
p927
ag5
asVwestside
p928
(lp929
g101
ag23
ag40
ag3
ag40
aVaI
p930
ag5
asVlollipop
p931
(lp932
g29
ag164
ag29
ag24
ag42
ag164
ag42
asVcertified
p933
(lp934
g40
aV3:
p935
ag3
aVI2
p936
ag36
aVaI
p937
ag5
asVcarrys
p938
(lp939
g25
ag20
ag68
ag76
ag7
asVshaggy
p940
(lp941
g116
ag20
ag21
ag76
asVraisin
p942
(lp943
g68
aVeI
p944
ag7
ag4
ag22
asVdays
p945
(lp946
g5
aVeI
p947
ag7
asVflicker
p948
(lp949
g36
ag29
ag24
ag25
ag88
asVsoda
p950
(lp951
g40
aVoU
p952
ag5
ag4
asVfeds
p953
(lp954
g36
ag23
ag5
ag7
asVshootin
p955
(lp956
g116
aVu:
p957
ag3
ag24
ag22
asVshittin
p958
(lp959
g116
ag24
ag3
ag24
ag22
asVcaught
p960
(lp961
g25
aVO:
p962
ag3
asVfuckin
p963
(lp964
g36
ag75
ag25
ag24
ag22
asVtijuana
p965
(lp966
g3
aVi@
p967
ag101
aVA:
p968
ag22
ag4
asVflick
p969
(lp970
g36
ag29
ag24
ag25
asValready
p971
(lp972
VO:
p973
ag29
ag68
ag23
ag5
ag76
asVtilapia
p974
(lp975
g3
ag24
ag29
aVeI
p976
ag42
aVi@
p977
asVchamps
p978
(lp979
VtS
p980
ag20
ag19
ag42
ag40
asVjamaica
p981
(lp982
VdZ
p983
aVa#
p984
ag19
aVeI
p985
ag25
ag4
asVgrade
p986
(lp987
g21
ag68
aVeI
p988
ag5
asVhoop
p989
(lp990
g49
aVu:
p991
ag42
asVwalkers
p992
(lp993
g101
aVO:
p994
ag25
ag88
ag7
asVsystem
p995
(lp996
g40
ag24
ag40
ag3
ag4
ag19
asVchannels
p997
(lp998
VtS
p999
ag20
ag22
aV@L
p1000
ag7
asVhook
p1001
(lp1002
g49
ag141
ag25
asVspinning
p1003
(lp1004
g40
ag42
ag24
ag22
ag24
ag50
asVfloors
p1005
(lp1006
g36
ag29
aVo@
p1007
ag7
asVanother
p1008
(lp1009
Va#
p1010
ag22
ag75
ag174
ag88
asVcomin
p1011
(lp1012
g25
ag164
ag19
ag24
ag22
asVrats
p1013
(lp1014
g68
ag20
ag3
ag40
asVballin
p1015
(lp1016
g74
ag20
ag29
aVI2
p1017
ag22
asVhood
p1018
(lp1019
g49
ag141
ag5
asVfence
p1020
(lp1021
g36
ag23
ag22
ag40
asVservice
p1022
(lp1023
g40
aV3:
p1024
ag131
ag24
ag40
asVguinness
p1025
(lp1026
g21
ag24
ag22
ag24
ag40
asVtop
p1027
(lp1028
g3
ag164
ag42
asVgirls
p1029
(lp1030
g21
aV3:
p1031
ag29
ag7
asVtwisted
p1032
(lp1033
g3
ag101
ag24
ag40
ag3
aVI2
p1034
ag5
asVceilin
p1035
(lp1036
g40
aVi:
p1037
ag29
ag24
ag22
asVneeded
p1038
(lp1039
g22
aVi:
p1040
ag5
aVI2
p1041
ag5
asVairs
p1042
(lp1043
Ve@
p1044
ag7
asVtoo
p1045
(lp1046
g3
aVu:
p1047
asVrockin
p1048
(lp1049
g68
ag164
ag25
ag24
ag22
asVtwentys
p1050
(lp1051
g3
ag101
ag23
ag22
ag3
ag76
ag7
asVhollywood
p1052
(lp1053
g49
ag164
ag29
ag76
ag101
ag141
ag5
asVlegs
p1054
(lp1055
g29
ag23
ag21
ag7
asVbitter
p1056
(lp1057
g74
ag24
ag3
ag88
asVpenalties
p1058
(lp1059
g42
ag23
ag22
aV@L
p1060
ag3
ag76
ag7
asVlisten
p1061
(lp1062
g29
ag24
ag40
ag4
ag22
asVceiling
p1063
(lp1064
g40
aVi:
p1065
ag29
ag24
ag50
asVmurder
p1066
(lp1067
g19
aV3:
p1068
ag5
ag88
asVstuffed
p1069
(lp1070
g40
ag3
ag75
ag36
ag3
asVtool
p1071
(lp1072
g3
aVu:
p1073
ag29
asVwallabee
p1074
(lp1075
g101
ag164
ag29
aVa#
p1076
ag74
aVi:
p1077
asVserve
p1078
(lp1079
g40
aV3:
p1080
ag131
asVtook
p1081
(lp1082
g3
ag141
ag25
asVrejected
p1083
(lp1084
g68
aVI2
p1085
aVdZ
p1086
ag23
ag25
ag3
aVI2
p1087
ag5
asVrobyn
p1088
(lp1089
g68
ag164
ag74
ag24
ag22
asVtabloids
p1090
(lp1091
g3
ag20
ag74
ag29
aVOI
p1092
ag5
ag7
asVbringin
p1093
(lp1094
g74
ag68
ag24
ag50
ag21
ag24
ag22
asVwardrobe
p1095
(lp1096
g101
aVO@
p1097
ag5
ag68
aVoU
p1098
ag74
asVfurlough
p1099
(lp1100
g36
aV3:
p1101
ag29
aVoU
p1102
asVchef
p1103
(lp1104
g116
ag23
ag36
asVbananas
p1105
(lp1106
g74
aVa#
p1107
ag22
aVA:
p1108
ag22
ag4
ag7
asVdealin
p1109
(lp1110
g5
aVi:
p1111
ag29
ag24
ag22
asVdisciplined
p1112
(lp1113
g5
ag24
ag40
ag24
ag42
ag29
ag24
ag22
ag5
asVhike
p1114
(lp1115
g49
aVaI
p1116
ag25
asVoutlaw
p1117
(lp1118
VaU
p1119
ag3
ag29
aVO:
p1120
asVdryin
p1121
(lp1122
g5
ag68
aVaI
p1123
ag24
ag22
asVrolex
p1124
(lp1125
g68
aVoU
p1126
ag29
ag23
ag25
ag40
asVprayin
p1127
(lp1128
g42
ag68
aVeI
p1129
ag24
ag22
asVmerch
p1130
(lp1131
g19
aV3:
p1132
aVtS
p1133
asVmatter
p1134
(lp1135
g19
ag20
ag3
ag88
asVsolomon
p1136
(lp1137
g40
ag164
ag29
ag164
ag19
ag4
ag22
asVflame
p1138
(lp1139
g36
ag29
aVeI
p1140
ag19
asVfriend
p1141
(lp1142
g36
ag68
ag23
ag22
ag5
asViron
p1143
(lp1144
VaI@
p1145
ag22
asVpelle
p1146
(lp1147
g42
ag23
ag29
asVravished
p1148
(lp1149
g68
ag20
ag131
ag24
ag116
ag3
asVbridge
p1150
(lp1151
g74
ag68
ag24
aVdZ
p1152
asVmink
p1153
(lp1154
g19
ag24
ag50
ag25
asVnamebrand
p1155
(lp1156
g22
aVeI
p1157
ag19
ag74
ag68
ag20
ag22
ag5
asVpalace
p1158
(lp1159
g42
ag20
ag29
ag24
ag40
asVran
p1160
(lp1161
g68
ag20
ag22
asVboston
p1162
(lp1163
g74
ag164
ag40
ag3
ag4
ag22
asVstrippin
p1164
(lp1165
g40
ag3
ag68
ag24
ag42
ag24
ag22
asVmind
p1166
(lp1167
g19
aVaI
p1168
ag22
ag5
asVmine
p1169
(lp1170
g19
aVaI
p1171
ag22
asVraw
p1172
(lp1173
g68
aVO:
p1174
asVrat
p1175
(lp1176
g68
ag20
ag3
asVseed
p1177
(lp1178
g40
aVi:
p1179
ag5
asVrap
p1180
(lp1181
g68
ag20
ag42
asVseen
p1182
(lp1183
g40
aVi:
p1184
ag22
asVpoundcake
p1185
(lp1186
g42
aVaU
p1187
ag22
ag5
ag25
aVeI
p1188
ag25
asVdozen
p1189
(lp1190
g5
ag75
ag7
ag4
ag22
asVforced
p1191
(lp1192
g36
aVo@
p1193
ag40
ag3
asVconcrete
p1194
(lp1195
g25
ag164
ag50
ag25
ag68
aVi:
p1196
ag3
asVparamedics
p1197
(lp1198
g42
ag20
ag68
ag4
ag19
ag23
ag5
ag24
ag25
ag40
asVseethrough
p1199
(lp1200
g40
aVi:
p1201
ag103
ag68
aVu:
p1202
asVisolated
p1203
(lp1204
VaI
p1205
ag40
ag4
ag29
aVeI
p1206
ag3
aVI2
p1207
ag5
asVthorough
p1208
(lp1209
g103
ag75
ag68
ag4
asVchest
p1210
(lp1211
VtS
p1212
ag23
ag40
ag3
asVcausing
p1213
(lp1214
g25
aVO:
p1215
ag7
ag24
ag50
asVseason
p1216
(lp1217
g40
aVi:
p1218
ag7
ag4
ag22
asVhoods
p1219
(lp1220
g49
ag141
ag5
ag7
asVpanties
p1221
(lp1222
g42
aVaa
p1223
ag22
ag3
ag76
ag7
asVrides
p1224
(lp1225
g68
aVaI
p1226
ag5
ag7
asVsoaker
p1227
(lp1228
g40
aVoU
p1229
ag25
ag88
asVeven
p1230
(lp1231
Vi:
p1232
ag131
ag4
ag22
asVwrists
p1233
(lp1234
g68
ag24
ag40
ag3
ag40
asVthough
p1235
(lp1236
g174
aVoU
p1237
asVfaceover
p1238
(lp1239
g36
aVeI
p1240
ag40
aVoU
p1241
ag131
ag88
asVdoin
p1242
(lp1243
g5
aVu:
p1244
ag24
ag22
asVobject
p1245
(lp1246
g164
ag74
aVdZ
p1247
ag23
ag25
ag3
asVwhat
p1248
(lp1249
g101
ag164
ag3
asVgotsta
p1250
(lp1251
g21
ag164
ag3
ag40
ag3
ag4
asVvictoria
p1252
(lp1253
g131
ag24
ag25
ag3
aVo@
p1254
ag68
aVi@
p1255
asVanatomy
p1256
(lp1257
Va#
p1258
ag22
ag20
ag3
ag4
ag19
ag76
asVquit
p1259
(lp1260
g25
ag101
ag24
ag3
asVregular
p1261
(lp1262
g68
ag23
ag21
ag32
ag141
ag29
ag88
asVmouth
p1263
(lp1264
g19
aVaU
p1265
ag103
asVplenty
p1266
(lp1267
g42
ag29
ag23
ag22
ag3
ag76
asVjumpin
p1268
(lp1269
VdZ
p1270
ag75
ag19
ag42
ag24
ag22
asVwettin
p1271
(lp1272
g101
ag23
ag3
ag24
ag22
asVunorthodox
p1273
(lp1274
g75
ag22
aVO@
p1275
ag103
ag4
ag5
ag164
ag25
ag40
asValabama
p1276
(lp1277
g20
ag29
ag4
ag74
ag20
ag19
ag4
asVgrave
p1278
(lp1279
g21
ag68
aVeI
p1280
ag131
asVglow
p1281
(lp1282
g21
ag29
aVoU
p1283
asVdummy
p1284
(lp1285
g5
ag75
ag19
ag76
asVdon
p1286
(lp1287
g5
ag164
ag22
asVdom
p1288
(lp1289
g5
ag164
ag19
asVflow
p1290
(lp1291
g36
ag29
aVoU
p1292
asVdog
p1293
(lp1294
g5
ag164
ag21
asVtecs
p1295
(lp1296
g3
ag23
ag25
ag40
asVhoochies
p1297
(lp1298
g49
aVu:
p1299
aVtS
p1300
ag76
ag7
asVmoneygrip
p1301
(lp1302
g19
ag75
ag22
ag24
ag21
ag68
ag24
ag42
asVbracket
p1303
(lp1304
g74
ag68
ag20
ag25
aVI2
p1305
ag3
asVtech
p1306
(lp1307
g3
ag23
ag25
asVenterprise
p1308
(lp1309
g23
ag22
ag3
ag88
ag42
ag68
aVaI
p1310
ag7
asVnineteenth
p1311
(lp1312
g22
aVaI
p1313
ag22
ag3
aVi:
p1314
ag22
ag103
asVscream
p1315
(lp1316
g40
ag25
ag68
aVi:
p1317
ag19
asVcame
p1318
(lp1319
g25
aVeI
p1320
ag19
asVsaying
p1321
(lp1322
g40
aVeI
p1323
ag24
ag50
asVhandlin
p1324
(lp1325
g49
ag20
ag22
ag5
ag29
ag24
ag22
asVbait
p1326
(lp1327
g74
aVeI
p1328
ag3
asVinspire
p1329
(lp1330
g24
ag22
ag40
ag42
aVaI@
p1331
asVhunger
p1332
(lp1333
g49
ag75
ag50
ag21
ag88
asVlewis
p1334
(lp1335
g29
aVu:
p1336
ag24
ag40
asVqueen
p1337
(lp1338
g25
ag101
aVi:
p1339
ag22
asVsage
p1340
(lp1341
g40
aVeI
p1342
aVdZ
p1343
asVbonnie
p1344
(lp1345
g74
ag164
ag22
ag76
asVheckler
p1346
(lp1347
g49
ag23
ag25
ag29
ag88
asVpops
p1348
(lp1349
g42
ag164
ag42
ag40
asVgauge
p1350
(lp1351
g21
aVeI
p1352
aVdZ
p1353
asVicicles
p1354
(lp1355
VaI
p1356
ag40
ag24
ag25
aV@L
p1357
ag7
asVsneaking
p1358
(lp1359
g40
ag22
aVi:
p1360
ag25
ag24
ag50
asVearth
p1361
(lp1362
V3:
p1363
ag103
asVbail
p1364
(lp1365
g74
aVeI
p1366
ag29
asVtoast
p1367
(lp1368
g3
aVoU
p1369
ag40
ag3
asVjudges
p1370
(lp1371
VdZ
p1372
ag75
aVdZ
p1373
aVI2
p1374
ag7
asVgeyser
p1375
(lp1376
g21
aVi:
p1377
ag7
ag88
asVsoldier
p1378
(lp1379
g40
aVoU
p1380
ag29
aVdZ
p1381
ag88
asVjust
p1382
(lp1383
VdZ
p1384
ag75
ag40
ag3
asVringin
p1385
(lp1386
g68
ag24
ag50
ag21
ag24
ag22
asVheadline
p1387
(lp1388
g49
ag23
ag5
ag29
aVaI
p1389
ag22
asVexplain
p1390
(lp1391
g23
ag25
ag40
ag42
ag29
aVeI
p1392
ag22
asVcockin
p1393
(lp1394
g25
ag164
ag25
ag24
ag22
asVbust
p1395
(lp1396
g74
ag75
ag40
ag3
asVsugar
p1397
(lp1398
g116
ag141
ag21
ag88
asVbush
p1399
(lp1400
g74
ag141
ag116
asVrick
p1401
(lp1402
g68
ag24
ag25
asVrich
p1403
(lp1404
g68
ag24
aVtS
p1405
asVfolks
p1406
(lp1407
g36
aVoU
p1408
ag25
ag40
asVannounce
p1409
(lp1410
Va#
p1411
ag22
aVaU
p1412
ag22
ag40
asVgangsta
p1413
(lp1414
g21
ag20
ag50
ag40
ag3
ag4
asVabu
p1415
(lp1416
g20
ag74
aVu:
p1417
asVdo
p1418
(lp1419
g5
aVu:
p1420
asVdj
p1421
(lp1422
g5
aVi:
p1423
aVdZ
p1424
aVeI
p1425
asVloved
p1426
(lp1427
g29
ag75
ag131
ag5
asVsmut
p1428
(lp1429
g40
ag19
ag75
ag3
asVwatch
p1430
(lp1431
g101
ag164
aVtS
p1432
asVleakin
p1433
(lp1434
g29
aVi:
p1435
ag25
ag24
ag22
asVcoast
p1436
(lp1437
g25
aVoU
p1438
ag40
ag3
asVfrowning
p1439
(lp1440
g36
ag68
aVaU
p1441
ag22
ag24
ag50
asVgoons
p1442
(lp1443
g21
aVu:
p1444
ag22
ag7
asVtammy
p1445
(lp1446
g3
ag20
ag19
ag76
asVfetish
p1447
(lp1448
g36
ag23
ag3
ag24
ag116
asVnasty
p1449
(lp1450
g22
aVaa
p1451
ag40
ag3
ag76
asVsaturn
p1452
(lp1453
g40
ag20
ag3
aV3:
p1454
ag22
asVdr
p1455
(lp1456
g5
ag164
ag25
ag3
ag88
asVfabrics
p1457
(lp1458
g36
ag20
ag74
ag68
ag24
ag25
ag40
asVshaking
p1459
(lp1460
g116
aVeI
p1461
ag25
ag24
ag50
asVruns
p1462
(lp1463
g68
ag75
ag22
ag7
asVbar
p1464
(lp1465
g74
aVA@
p1466
asVfiveeight
p1467
(lp1468
g36
aVaI
p1469
ag131
aVeI
p1470
ag3
asVfields
p1471
(lp1472
g36
aVi:
p1473
ag29
ag5
ag7
asVcolas
p1474
(lp1475
g25
aVoU
p1476
ag29
ag4
ag7
asVperico
p1477
(lp1478
g42
ag23
ag68
aVI2
p1479
ag25
aVoU
p1480
asVbeginnin
p1481
(lp1482
g74
ag24
ag21
ag24
ag22
ag24
ag22
asVguns
p1483
(lp1484
g21
ag75
ag22
ag7
asVbag
p1485
(lp1486
g74
ag20
ag21
asVbad
p1487
(lp1488
g74
ag20
ag5
asVshots
p1489
(lp1490
g116
ag164
ag3
ag40
asVsteak
p1491
(lp1492
g40
ag3
aVeI
p1493
ag25
asVsteal
p1494
(lp1495
g40
ag3
aVi:
p1496
ag29
asVsteam
p1497
(lp1498
g40
ag3
aVi:
p1499
ag19
asVears
p1500
(lp1501
Vi@3
p1502
ag7
asVinjections
p1503
(lp1504
g24
ag22
aVdZ
p1505
ag23
ag25
ag116
ag4
ag22
ag7
asVblew
p1506
(lp1507
g74
ag29
aVu:
p1508
asVfair
p1509
(lp1510
g36
aVe@
p1511
asVhabit
p1512
(lp1513
g49
ag20
ag74
ag24
ag3
asVliquor
p1514
(lp1515
g29
ag24
ag25
ag88
asVkellay
p1516
(lp1517
g25
ag23
ag29
aVeI
p1518
asVdecided
p1519
(lp1520
g5
aVI2
p1521
ag40
aVaI
p1522
ag5
aVI2
p1523
ag5
asVnews
p1524
(lp1525
g22
ag32
aVu:
p1526
ag7
asVhammer
p1527
(lp1528
g49
ag20
ag19
ag88
asVbest
p1529
(lp1530
g74
ag23
ag40
ag3
asVsaid
p1531
(lp1532
g40
ag23
ag5
asVdraws
p1533
(lp1534
g5
ag68
aVO:
p1535
ag7
asVlots
p1536
(lp1537
g29
ag164
ag3
ag40
asVscrap
p1538
(lp1539
g40
ag25
ag68
ag20
ag42
asVsail
p1540
(lp1541
g40
aVeI
p1542
ag29
asVrings
p1543
(lp1544
g68
ag24
ag50
ag7
asVcha
p1545
(lp1546
VtS
p1547
aVA:
p1548
asVgravedigger
p1549
(lp1550
g21
ag68
aVeI
p1551
ag131
ag5
ag24
ag21
ag88
asVstamps
p1552
(lp1553
g40
ag3
ag20
ag19
ag42
ag40
asVfinger
p1554
(lp1555
g36
ag24
ag50
ag21
ag88
asVherb
p1556
(lp1557
g49
aV3:
p1558
ag74
asVwhassup
p1559
(lp1560
g101
ag4
ag116
ag75
ag42
asVcaves
p1561
(lp1562
g25
aVeI
p1563
ag131
ag7
asVspunky
p1564
(lp1565
g40
ag42
ag75
ag50
ag25
ag76
asVpreserve
p1566
(lp1567
g42
ag68
ag24
ag7
aV3:
p1568
ag131
asVwage
p1569
(lp1570
g101
aVeI
p1571
aVdZ
p1572
asVwe
p1573
(lp1574
g101
aVi:
p1575
asVmen
p1576
(lp1577
g19
ag23
ag22
asVsheist
p1578
(lp1579
g116
aVeI
p1580
ag40
ag3
asVrims
p1581
(lp1582
g68
ag24
ag19
ag7
asVrolled
p1583
(lp1584
g68
aVoU
p1585
ag29
ag5
asVfelony
p1586
(lp1587
g36
ag23
ag29
ag4
ag22
ag76
asVscramblin
p1588
(lp1589
g40
ag25
ag68
ag20
ag19
ag74
ag29
ag24
ag22
asVmetal
p1590
(lp1591
g19
ag23
ag3
aV@L
p1592
asVboss
p1593
(lp1594
g74
ag164
ag40
asVnightmares
p1595
(lp1596
g22
aVaI
p1597
ag3
ag19
aVe@
p1598
ag7
asVwristses
p1599
(lp1600
g68
ag24
ag40
ag3
ag40
ag76
ag12
aVI2
p1601
ag7
asVwear
p1602
(lp1603
g101
aVe@
p1604
asVduckin
p1605
(lp1606
g5
ag75
ag25
ag24
ag22
asVfetti
p1607
(lp1608
g36
ag23
ag3
ag76
asVpicking
p1609
(lp1610
g42
ag24
ag25
ag24
ag50
asVblasted
p1611
(lp1612
g74
ag29
aVaa
p1613
ag40
ag3
aVI2
p1614
ag5
asVkitchen
p1615
(lp1616
g25
ag24
aVtS
p1617
ag4
ag22
asVfaced
p1618
(lp1619
g36
aVeI
p1620
ag40
ag5
asVfoes
p1621
(lp1622
g36
aVoU
p1623
ag7
asVcos
p1624
(lp1625
g25
ag164
ag40
asVaccident
p1626
(lp1627
g20
ag25
ag40
ag24
ag5
ag4
ag22
ag3
asVnaww
p1628
(lp1629
g22
aVO:
p1630
ag101
ag4
asVfault
p1631
(lp1632
g36
ag164
ag29
ag3
asVill
p1633
(lp1634
g24
ag29
asVagainst
p1635
(lp1636
Va#
p1637
ag21
ag23
ag22
ag40
ag3
asVplayers
p1638
(lp1639
g42
ag29
aVeI
p1640
ag88
ag7
asVgames
p1641
(lp1642
g21
aVeI
p1643
ag19
ag7
asVplanned
p1644
(lp1645
g42
ag29
ag20
ag22
ag5
asVlookin
p1646
(lp1647
g29
ag141
ag25
ag24
ag22
asVfaces
p1648
(lp1649
g36
aVeI
p1650
ag40
aVI2
p1651
ag7
asVpoorhouse
p1652
(lp1653
g42
aVU@
p1654
ag49
aVaU
p1655
ag40
asVasked
p1656
(lp1657
Vaa
p1658
ag40
ag25
ag3
asVwinnin
p1659
(lp1660
g101
ag24
ag22
ag24
ag22
asVtough
p1661
(lp1662
g3
ag75
ag36
asVcarat
p1663
(lp1664
g25
ag20
ag68
ag20
ag3
asVheight
p1665
(lp1666
g49
aVaI
p1667
ag3
asVcolombian
p1668
(lp1669
g25
ag4
ag29
ag75
ag19
ag74
aVi@
p1670
ag22
asVcanyon
p1671
(lp1672
g25
ag20
ag22
ag24
ag12
ag4
ag22
asVtony
p1673
(lp1674
g3
aVoU
p1675
ag22
ag76
asVcarborator
p1676
(lp1677
g25
aVA@
p1678
ag74
aVo@
p1679
ag68
aVeI
p1680
ag3
ag88
asVblonde
p1681
(lp1682
g74
ag29
ag164
ag22
ag5
asVtrust
p1683
(lp1684
g3
ag68
ag75
ag40
ag3
asVjayz
p1685
(lp1686
VdZ
p1687
aVeI
p1688
ag7
asVspeak
p1689
(lp1690
g40
ag42
aVi:
p1691
ag25
asVstomped
p1692
(lp1693
g40
ag3
ag164
ag19
ag42
ag3
asVseein
p1694
(lp1695
g40
aVi:
p1696
ag12
ag24
ag22
asVbeef
p1697
(lp1698
g74
aVi:
p1699
ag36
asVchrome
p1700
(lp1701
g25
ag68
aVoU
p1702
ag19
asVcreatures
p1703
(lp1704
g25
ag68
aVi:
p1705
aVtS
p1706
ag88
ag7
asVthree
p1707
(lp1708
g103
ag68
aVi:
p1709
asVbeen
p1710
(lp1711
g74
aVi:
p1712
ag22
asVtragedy
p1713
(lp1714
g3
ag68
ag20
aVdZ
p1715
ag4
ag5
ag76
asVsavin
p1716
(lp1717
g40
ag20
ag131
ag24
ag22
asVtrigger
p1718
(lp1719
g3
ag68
ag24
ag21
ag88
asVhomebase
p1720
(lp1721
g49
aVoU
p1722
ag19
ag74
aVeI
p1723
ag40
asVriley
p1724
(lp1725
g68
aVaI
p1726
ag29
ag76
asVthrew
p1727
(lp1728
g103
ag68
aVu:
p1729
asVdots
p1730
(lp1731
g5
ag164
ag3
ag40
asVdigits
p1732
(lp1733
g5
ag24
aVdZ
p1734
ag24
ag3
ag40
asVlife
p1735
(lp1736
g29
aVaI
p1737
ag36
asVdeeper
p1738
(lp1739
g5
aVi:
p1740
ag42
ag88
asVspit
p1741
(lp1742
g40
ag42
ag24
ag3
asVattacked
p1743
(lp1744
Va#
p1745
ag3
ag20
ag25
ag3
asVdrugs
p1746
(lp1747
g5
ag68
ag75
ag21
ag7
asVquantities
p1748
(lp1749
g25
ag101
ag164
ag22
ag3
aVI2
p1750
ag3
ag76
ag7
asVprison
p1751
(lp1752
g42
ag68
ag24
ag7
ag4
ag22
asVbladder
p1753
(lp1754
g74
ag29
ag20
ag5
ag88
asVmoneys
p1755
(lp1756
g19
ag75
ag22
ag76
ag7
asVlift
p1757
(lp1758
g29
ag24
ag36
ag3
asVreno
p1759
(lp1760
g68
aVi:
p1761
ag22
aVoU
p1762
asVchild
p1763
(lp1764
VtS
p1765
aVaI
p1766
ag29
ag5
asVcatch
p1767
(lp1768
g25
ag20
aVtS
p1769
asVrulin
p1770
(lp1771
g68
aVu:
p1772
ag29
ag24
ag22
asVhaters
p1773
(lp1774
g49
aVeI
p1775
ag3
ag88
ag7
asVspin
p1776
(lp1777
g40
ag42
ag24
ag22
asVchill
p1778
(lp1779
VtS
p1780
ag24
ag29
asVgritty
p1781
(lp1782
g21
ag68
ag24
ag3
ag76
asVreddish
p1783
(lp1784
g68
ag23
ag5
ag24
ag116
asVservin
p1785
(lp1786
g40
aV3:
p1787
ag131
ag24
ag22
asVcrossed
p1788
(lp1789
g25
ag68
ag164
ag40
ag3
asg22
(lp1790
g23
ag22
asVlesser
p1791
(lp1792
g29
ag23
ag40
ag88
asVugly
p1793
(lp1794
g75
ag21
ag29
ag76
asVlizard
p1795
(lp1796
g29
ag24
ag7
ag88
ag5
asVdroppin
p1797
(lp1798
g5
ag68
ag164
ag42
ag24
ag22
asVseeds
p1799
(lp1800
g40
aVi:
p1801
ag5
ag7
asVproperty
p1802
(lp1803
g42
ag68
ag164
ag42
ag88
ag3
ag76
asVburied
p1804
(lp1805
g74
ag23
ag68
ag76
ag5
asVstink
p1806
(lp1807
g40
ag3
ag24
ag50
ag25
asVplayed
p1808
(lp1809
g42
ag29
aVeI
p1810
ag5
asVis
p1811
(lp1812
g24
ag7
asVsushi
p1813
(lp1814
g40
aVu:
p1815
ag116
ag76
asVit
p1816
(lp1817
g24
ag3
asVinfested
p1818
(lp1819
g24
ag22
ag36
ag23
ag40
ag3
aVI2
p1820
ag5
asVcani
p1821
(lp1822
g25
ag20
ag22
ag76
asVshame
p1823
(lp1824
g116
aVeI
p1825
ag19
asVcant
p1826
(lp1827
g25
aVaa
p1828
ag22
ag3
asVtissue
p1829
(lp1830
g3
ag24
ag116
aVu:
p1831
asVim
p1832
(lp1833
g24
ag19
asVcans
p1834
(lp1835
g25
ag20
ag22
ag7
asVin
p1836
(lp1837
g24
ag22
asVcolosseum
p1838
(lp1839
g25
ag164
ag29
ag4
ag40
aVi@
p1840
ag19
asVdingos
p1841
(lp1842
g5
ag24
ag50
ag21
aVoU
p1843
ag7
asVid
p1844
(lp1845
VaI
p1846
ag5
aVi:
p1847
asVfeed
p1848
(lp1849
g36
aVi:
p1850
ag5
asVif
p1851
(lp1852
g24
ag36
asVgrown
p1853
(lp1854
g21
ag68
aVoU
p1855
ag22
asVbottles
p1856
(lp1857
g74
ag164
ag3
aV@L
p1858
ag7
asVcredit
p1859
(lp1860
g25
ag68
ag23
ag5
ag24
ag3
asVthings
p1861
(lp1862
g103
ag24
ag50
ag7
asVrealizing
p1863
(lp1864
g68
aVi@
p1865
ag29
aVaI
p1866
ag7
ag24
ag50
asVwound
p1867
(lp1868
g101
aVu:
p1869
ag22
ag5
asVdrugrelated
p1870
(lp1871
g5
ag68
ag75
ag21
ag68
aVI2
p1872
ag29
aVeI
p1873
ag3
aVI2
p1874
ag5
asVsplit
p1875
(lp1876
g40
ag42
ag29
ag24
ag3
asVesquire
p1877
(lp1878
g23
ag40
ag25
ag101
aVaI@
p1879
asVputtin
p1880
(lp1881
g42
ag75
ag3
ag24
ag22
asVseveral
p1882
(lp1883
g40
ag23
ag131
ag68
aV@L
p1884
asVeuropean
p1885
(lp1886
g32
aVU@
p1887
ag68
ag4
ag42
aVi@
p1888
ag22
asVquittin
p1889
(lp1890
g25
ag101
ag24
ag3
ag24
ag22
asVraid
p1891
(lp1892
g68
aVeI
p1893
ag5
asVkis
p1894
(lp1895
g25
ag24
ag40
asVblames
p1896
(lp1897
g74
ag29
aVeI
p1898
ag19
ag7
asVnasis
p1899
(lp1900
g22
ag20
ag40
ag76
ag7
asVtops
p1901
(lp1902
g3
ag164
ag42
ag40
asVrain
p1903
(lp1904
g68
aVeI
p1905
ag22
asVhand
p1906
(lp1907
g49
ag20
ag22
ag5
asVkin
p1908
(lp1909
g25
ag24
ag22
asVunicorn
p1910
(lp1911
g32
aVu:
p1912
ag22
ag24
ag25
aVO@
p1913
ag22
asVdark
p1914
(lp1915
g5
aVA@
p1916
ag25
asVtherell
p1917
(lp1918
g174
aVe@
p1919
ag29
asVwives
p1920
(lp1921
g101
aVaI
p1922
ag131
ag7
asVpullin
p1923
(lp1924
g42
ag141
ag29
aVI2
p1925
ag22
asVkid
p1926
(lp1927
g25
ag24
ag5
asVkept
p1928
(lp1929
g25
ag23
ag42
ag3
asVstupendous
p1930
(lp1931
g40
ag3
ag32
aVu:
p1932
ag42
ag23
ag22
ag5
ag4
ag40
asVcharlie
p1933
(lp1934
VtS
p1935
aVA@
p1936
ag29
ag76
asVyoure
p1937
(lp1938
g32
aVo@
p1939
asVsmokes
p1940
(lp1941
g40
ag19
aVoU
p1942
ag25
ag40
asVsmoker
p1943
(lp1944
g40
ag19
aVoU
p1945
ag25
ag88
asVheartbreaking
p1946
(lp1947
g49
aVA@
p1948
ag3
ag74
ag68
aVeI
p1949
ag25
ag24
ag50
asVburgers
p1950
(lp1951
g74
aV3:
p1952
ag21
ag88
ag7
asVmamma
p1953
(lp1954
g19
ag20
ag19
ag4
asVmother
p1955
(lp1956
g19
ag75
ag174
ag88
asVhearts
p1957
(lp1958
g49
aVA@
p1959
ag3
ag40
asVthe
p1960
(lp1961
g174
ag4
asVriverdale
p1962
(lp1963
g68
ag24
ag131
ag88
ag5
aVeI
p1964
ag29
asVyours
p1965
(lp1966
g32
aVo@
p1967
ag7
asVleft
p1968
(lp1969
g29
ag23
ag36
ag3
asVthreex
p1970
(lp1971
g103
ag68
aVi:
p1972
ag25
ag40
asVprotocol
p1973
(lp1974
g42
ag68
aVoU
p1975
ag3
ag4
ag25
ag164
ag29
asVgivin
p1976
(lp1977
VdZ
p1978
ag24
ag131
ag24
ag22
asVsentence
p1979
(lp1980
g40
ag23
ag22
ag3
ag4
ag22
ag40
asVgods
p1981
(lp1982
g21
ag164
ag5
ag7
asVverses
p1983
(lp1984
g131
aV3:
p1985
ag40
aVI2
p1986
ag7
asVtransforms
p1987
(lp1988
g3
ag68
ag20
ag22
ag40
ag36
aVO@
p1989
ag19
ag7
asVvictim
p1990
(lp1991
g131
ag24
ag25
ag3
aVI2
p1992
ag19
asVswears
p1993
(lp1994
g40
ag101
aVe@
p1995
ag7
asVfacts
p1996
(lp1997
g36
ag20
ag25
ag3
ag40
asVyep
p1998
(lp1999
g32
ag23
ag42
asVyet
p2000
(lp2001
g32
ag23
ag3
asVcarats
p2002
(lp2003
g25
ag20
ag68
ag20
ag3
ag40
asVhills
p2004
(lp2005
g49
ag24
ag29
ag7
asVmix
p2006
(lp2007
g19
ag24
ag25
ag40
asVfurry
p2008
(lp2009
g36
aV3:
p2010
ag68
ag76
asVhad
p2011
(lp2012
g49
ag20
ag5
asVjeweler
p2013
(lp2014
VdZ
p2015
aVu:
p2016
ag4
ag29
ag88
asVabout
p2017
(lp2018
Va#
p2019
ag74
aVaU
p2020
ag3
asVshout
p2021
(lp2022
g116
aVaU
p2023
ag3
asVspread
p2024
(lp2025
g40
ag42
ag68
ag23
ag5
asVdreams
p2026
(lp2027
g5
ag68
aVi:
p2028
ag19
ag7
asVeasy
p2029
(lp2030
Vi:
p2031
ag7
ag76
asVswimmin
p2032
(lp2033
g40
ag101
ag24
ag19
ag24
ag22
asVhas
p2034
(lp2035
g49
ag20
ag7
asVhat
p2036
(lp2037
g49
ag20
ag3
asVgave
p2038
(lp2039
g21
aVeI
p2040
ag131
asVshoulder
p2041
(lp2042
g116
aVoU
p2043
ag29
ag5
ag88
asVelders
p2044
(lp2045
g23
ag29
ag5
ag88
ag7
asVbreaks
p2046
(lp2047
g74
ag68
aVeI
p2048
ag25
ag40
asVposed
p2049
(lp2050
g42
aVoU
p2051
ag7
ag5
asVcaps
p2052
(lp2053
g25
ag20
ag42
ag40
asVboxes
p2054
(lp2055
g74
ag164
ag25
ag40
aVI2
p2056
ag7
asVfiendin
p2057
(lp2058
g36
aVi:
p2059
ag22
ag5
ag24
ag22
asVslurpin
p2060
(lp2061
g40
ag29
aV3:
p2062
ag42
ag24
ag22
asVperformance
p2063
(lp2064
g42
ag88
ag36
aVo@
p2065
ag19
ag4
ag22
ag40
asVjudge
p2066
(lp2067
VdZ
p2068
ag75
aVdZ
p2069
asVshadow
p2070
(lp2071
g116
ag20
ag5
aVoU
p2072
asVstrap
p2073
(lp2074
g40
ag3
ag68
ag20
ag42
asVburnt
p2075
(lp2076
g74
aV3:
p2077
ag22
ag3
asVrumor
p2078
(lp2079
g68
aVu:
p2080
ag19
ag88
asVvanity
p2081
(lp2082
g131
ag20
ag22
aVI2
p2083
ag3
ag76
asVpackin
p2084
(lp2085
g42
ag20
ag25
ag24
ag22
asVbro
p2086
(lp2087
g74
ag68
aVoU
p2088
asVgrizzly
p2089
(lp2090
g21
ag68
ag24
ag7
ag29
ag76
asVmanual
p2091
(lp2092
g19
ag20
ag22
ag32
aVu:
p2093
aV@L
p2094
asVchunky
p2095
(lp2096
VtS
p2097
ag75
ag50
ag25
ag76
asVpimple
p2098
(lp2099
g42
ag24
ag19
ag42
aV@L
p2100
asVsteps
p2101
(lp2102
g40
ag3
ag23
ag42
ag40
asVchannel
p2103
(lp2104
VtS
p2105
ag20
ag22
aV@L
p2106
asVnight
p2107
(lp2108
g22
aVaI
p2109
ag3
asVbuckin
p2110
(lp2111
g74
ag75
ag25
ag24
ag22
asVsebastian
p2112
(lp2113
g40
ag4
ag74
aVaa
p2114
ag40
aVtS
p2115
ag4
ag22
asVbonkers
p2116
(lp2117
g74
ag164
ag50
ag25
ag88
ag7
asVbattlefield
p2118
(lp2119
g74
ag20
ag3
aV@L
p2120
ag36
aVi:
p2121
ag29
ag5
asVright
p2122
(lp2123
g68
aVaI
p2124
ag3
asVold
p2125
(lp2126
VoU
p2127
ag29
ag5
asVdeal
p2128
(lp2129
g5
aVi:
p2130
ag29
asVpeople
p2131
(lp2132
g42
aVi:
p2133
ag42
aV@L
p2134
asVsuccessfully
p2135
(lp2136
g40
ag4
ag25
ag40
ag23
ag40
ag36
ag4
ag29
ag76
asVcrown
p2137
(lp2138
g25
ag68
aVaU
p2139
ag22
asVdead
p2140
(lp2141
g5
ag23
ag5
asVtransaction
p2142
(lp2143
g3
ag68
ag20
ag22
ag40
ag20
ag25
ag116
ag4
ag22
asVborn
p2144
(lp2145
g74
aVO@
p2146
ag22
asVku
p2147
(lp2148
g25
aVu:
p2149
asVelection
p2150
(lp2151
VI2
p2152
ag29
ag23
ag25
ag116
ag4
ag22
asVguess
p2153
(lp2154
g21
ag23
ag40
asVdoorstep
p2155
(lp2156
g5
aVo@
p2157
ag40
ag3
ag23
ag42
asVstrategic
p2158
(lp2159
g40
ag3
ag68
ag4
ag3
aVi:
p2160
aVdZ
p2161
ag24
ag25
asVcooper
p2162
(lp2163
g25
aVu:
p2164
ag42
ag88
asVfor
p2165
(lp2166
g36
aVO@
p2167
asVbottom
p2168
(lp2169
g74
ag164
ag3
ag4
ag19
asVmicrowave
p2170
(lp2171
g19
aVaI
p2172
ag25
ag68
aVoU
p2173
ag101
aVeI
p2174
ag131
asVpolluted
p2175
(lp2176
g42
ag4
ag29
aVu:
p2177
ag3
aVI2
p2178
ag5
asVeverything
p2179
(lp2180
g23
ag131
ag68
aVI2
p2181
ag103
ag24
ag50
asVarrest
p2182
(lp2183
Va#
p2184
ag68
ag23
ag40
ag3
asVumm
p2185
(lp2186
g75
ag19
asVbeating
p2187
(lp2188
g74
aVi:
p2189
ag3
ag24
ag50
asVchristmas
p2190
(lp2191
g25
ag68
ag24
ag40
ag19
ag4
ag40
asVsnakell
p2192
(lp2193
g40
ag22
aVeI
p2194
ag25
aV@L
p2195
asVknew
p2196
(lp2197
g22
ag32
aVu:
p2198
asVextraordinaire
p2199
(lp2200
g23
ag25
ag40
ag3
ag68
aVo@
p2201
ag5
ag24
ag22
aVe@
p2202
asVpose
p2203
(lp2204
g42
aVoU
p2205
ag7
asVlefty
p2206
(lp2207
g29
ag23
ag36
ag3
ag76
asVburner
p2208
(lp2209
g74
aV3:
p2210
ag22
ag88
asVlosing
p2211
(lp2212
g29
aVu:
p2213
ag7
ag24
ag50
asVpliers
p2214
(lp2215
g42
ag29
aVaI@
p2216
ag7
asVpeep
p2217
(lp2218
g42
aVi:
p2219
ag42
asVsuper
p2220
(lp2221
g40
aVu:
p2222
ag42
ag88
asVpermitted
p2223
(lp2224
g42
ag88
ag19
ag24
ag3
aVI2
p2225
ag5
asVplug
p2226
(lp2227
g42
ag29
ag75
ag21
asVslither
p2228
(lp2229
g40
ag29
ag24
ag174
ag88
asVattacks
p2230
(lp2231
Va#
p2232
ag3
ag20
ag25
ag40
asVribs
p2233
(lp2234
g68
ag24
ag74
ag7
asVchoke
p2235
(lp2236
VtS
p2237
aVoU
p2238
ag25
asVo
p2239
(lp2240
VoU
p2241
asVdinner
p2242
(lp2243
g5
ag24
ag22
ag88
asVplus
p2244
(lp2245
g42
ag29
ag75
ag40
asVown
p2246
(lp2247
VoU
p2248
ag22
asVsweater
p2249
(lp2250
g40
ag101
ag23
ag3
ag88
asVraised
p2251
(lp2252
g68
aVeI
p2253
ag7
ag5
asVmotivate
p2254
(lp2255
g19
aVoU
p2256
ag3
aVI2
p2257
ag131
aVeI
p2258
ag3
asVkitkats
p2259
(lp2260
g25
ag24
ag3
ag25
ag20
ag3
ag40
asVfroze
p2261
(lp2262
g36
ag68
aVoU
p2263
ag7
asVpresence
p2264
(lp2265
g42
ag68
ag23
ag7
ag4
ag22
ag40
asVpays
p2266
(lp2267
g42
aVeI
p2268
ag7
asVsparing
p2269
(lp2270
g40
ag42
aVe@
p2271
ag68
aVI2
p2272
ag50
asVson
p2273
(lp2274
g40
ag75
ag22
asVdown
p2275
(lp2276
g5
aVaU
p2277
ag22
asVlies
p2278
(lp2279
g29
aVaI
p2280
ag7
asVdonated
p2281
(lp2282
g5
aVoU
p2283
ag22
aVeI
p2284
ag3
aVI2
p2285
ag5
asVdialo
p2286
(lp2287
g5
aVaI@
p2288
ag29
aVoU
p2289
asVsoon
p2290
(lp2291
g40
aVu:
p2292
ag22
asVrounds
p2293
(lp2294
g68
aVaU
p2295
ag22
ag5
ag7
asVmurderers
p2296
(lp2297
g19
aV3:
p2298
ag5
ag88
ag68
ag12
ag88
ag7
asVeast
p2299
(lp2300
Vi:
p2301
ag40
ag3
asVrely
p2302
(lp2303
g68
aVI2
p2304
ag29
aVaI
p2305
asVtennis
p2306
(lp2307
g3
ag23
ag22
aVI2
p2308
ag40
asVjealousy
p2309
(lp2310
VdZ
p2311
ag23
ag29
ag4
ag40
ag76
asVlightin
p2312
(lp2313
g29
aVaI
p2314
ag3
ag24
ag22
asVwhy
p2315
(lp2316
g101
aVaI
p2317
asVstuck
p2318
(lp2319
g40
ag3
ag75
ag25
asVhapnin
p2320
(lp2321
g49
ag20
ag42
ag22
ag24
ag22
asVway
p2322
(lp2323
g101
aVeI
p2324
asVcrews
p2325
(lp2326
g25
ag68
aVu:
p2327
ag7
asVqueens
p2328
(lp2329
g25
ag101
aVi:
p2330
ag22
ag7
asVwas
p2331
(lp2332
g101
ag164
ag7
asVwar
p2333
(lp2334
g101
aVO@
p2335
asVhappy
p2336
(lp2337
g49
ag20
ag42
ag76
asVhead
p2338
(lp2339
g49
ag23
ag5
asVform
p2340
(lp2341
g36
aVO@
p2342
ag19
asVbettin
p2343
(lp2344
g74
ag23
ag3
ag24
ag22
asVsome
p2345
(lp2346
g40
ag75
ag19
asVcuban
p2347
(lp2348
g25
ag32
aVu:
p2349
ag74
ag4
ag22
asVfore
p2350
(lp2351
g36
aVO@
p2352
asVback
p2353
(lp2354
g74
ag20
ag25
asVmaddest
p2355
(lp2356
g19
ag20
ag5
aVI2
p2357
ag40
ag3
asVheat
p2358
(lp2359
g49
aVi:
p2360
ag3
asVhear
p2361
(lp2362
g49
aVi@3
p2363
asVlows
p2364
(lp2365
g29
aVoU
p2366
ag7
asVheap
p2367
(lp2368
g49
aVi:
p2369
ag42
asVremoved
p2370
(lp2371
g68
aVI2
p2372
ag19
aVu:
p2373
ag131
ag5
asVtrue
p2374
(lp2375
g3
ag68
aVu:
p2376
asVfort
p2377
(lp2378
g36
aVO@
p2379
ag3
asVtraces
p2380
(lp2381
g3
ag68
aVeI
p2382
ag40
aVI2
p2383
ag7
asVlimousine
p2384
(lp2385
g29
ag24
ag19
ag4
ag7
aVi:
p2386
ag22
asVinside
p2387
(lp2388
g24
ag22
ag40
aVaI
p2389
ag5
asVlips
p2390
(lp2391
g29
ag24
ag42
ag40
asVruined
p2392
(lp2393
g68
aVu:
p2394
aVI2
p2395
ag22
ag5
asVwhiskey
p2396
(lp2397
g101
ag24
ag40
ag25
ag76
asVlays
p2398
(lp2399
g29
aVeI
p2400
ag7
asVdaddy
p2401
(lp2402
g5
ag20
ag5
ag76
asVnerds
p2403
(lp2404
g22
aV3:
p2405
ag5
ag7
asVpassenger
p2406
(lp2407
g42
ag20
ag40
aVI2
p2408
ag22
aVdZ
p2409
ag88
asVfurs
p2410
(lp2411
g36
aV3:
p2412
ag7
asVshooter
p2413
(lp2414
g116
aVu:
p2415
ag3
ag88
asVclothin
p2416
(lp2417
g25
ag29
aVoU
p2418
ag174
ag24
ag22
asVtryna
p2419
(lp2420
g3
ag68
aVi:
p2421
ag22
ag4
asVperuvian
p2422
(lp2423
g42
ag4
ag68
aVu:
p2424
ag131
aVi@
p2425
ag22
asVdrive
p2426
(lp2427
g5
ag68
aVaI
p2428
ag131
asVthunn
p2429
(lp2430
g103
ag75
ag22
asVthugging
p2431
(lp2432
g103
ag75
ag21
ag24
ag50
asVmagnifico
p2433
(lp2434
g19
ag20
ag21
ag22
ag24
ag36
aVI2
p2435
ag25
aVoU
p2436
asVshines
p2437
(lp2438
g116
aVaI
p2439
ag22
ag7
asVmustang
p2440
(lp2441
g19
ag75
ag40
ag3
ag20
ag50
asVshit
p2442
(lp2443
g116
ag24
ag3
asVtwentyfour
p2444
(lp2445
g3
ag101
ag23
ag22
ag3
ag24
ag36
aVo@
p2446
asVlungs
p2447
(lp2448
g29
ag75
ag50
ag7
asVdotted
p2449
(lp2450
g5
ag164
ag3
aVI2
p2451
ag5
asVno
p2452
(lp2453
g22
aVoU
p2454
asVpuss
p2455
(lp2456
g42
ag141
ag40
asVwhen
p2457
(lp2458
g101
ag23
ag22
asVhanded
p2459
(lp2460
g49
ag20
ag22
ag5
aVI2
p2461
ag5
asVreality
p2462
(lp2463
g68
aVI2
p2464
ag12
ag20
ag29
aVI2
p2465
ag3
ag76
asVtil
p2466
(lp2467
g3
ag24
ag29
asVny
p2468
(lp2469
g23
ag22
ag101
aVaI
p2470
asVmystifyin
p2471
(lp2472
g19
ag24
ag40
ag3
aVI2
p2473
ag36
aVaI
p2474
ag24
ag22
asVcreep
p2475
(lp2476
g25
ag68
aVi:
p2477
ag42
asVpapers
p2478
(lp2479
g42
aVeI
p2480
ag42
ag88
ag7
asVtest
p2481
(lp2482
g3
ag23
ag40
ag3
asVhangin
p2483
(lp2484
g49
ag20
ag50
ag21
ag24
ag22
asVsmell
p2485
(lp2486
g40
ag19
ag23
ag29
asVroll
p2487
(lp2488
g68
aVoU
p2489
ag29
asVpicture
p2490
(lp2491
g42
ag24
ag25
aVtS
p2492
ag88
asVwombat
p2493
(lp2494
g101
ag164
ag19
ag74
ag20
ag3
asVbrothers
p2495
(lp2496
g74
ag68
ag75
ag174
ag88
ag7
asVsling
p2497
(lp2498
g40
ag29
ag24
ag50
asVdelivered
p2499
(lp2500
g5
aVI2
p2501
ag29
ag24
ag131
ag88
ag5
asVmodels
p2502
(lp2503
g19
ag164
ag5
aV@L
p2504
ag7
asVsurprise
p2505
(lp2506
g40
ag88
ag42
ag68
aVaI
p2507
ag7
asVwelcome
p2508
(lp2509
g101
ag23
ag29
ag25
ag75
ag19
asVqatar
p2510
(lp2511
g25
ag20
ag3
aVA@
p2512
asVconcurrent
p2513
(lp2514
g25
ag4
ag50
ag25
ag75
ag68
ag4
ag22
ag3
asVfell
p2515
(lp2516
g36
ag23
ag29
asVprofessional
p2517
(lp2518
g42
ag68
ag4
ag36
ag23
ag116
ag4
ag22
aV@L
p2519
asVomega
p2520
(lp2521
VoU
p2522
ag19
aVeI
p2523
ag21
ag4
asVdied
p2524
(lp2525
g5
aVaI
p2526
ag5
asVjewelry
p2527
(lp2528
VdZ
p2529
aVu:
p2530
ag4
ag29
ag68
ag76
asVyounger
p2531
(lp2532
g32
ag75
ag50
ag21
ag88
asVshootout
p2533
(lp2534
g116
aVu:
p2535
ag3
aVaU
p2536
ag3
asVfaster
p2537
(lp2538
g36
aVaa
p2539
ag40
ag3
ag88
asVbullet
p2540
(lp2541
g74
ag141
ag29
ag24
ag3
asVpaces
p2542
(lp2543
g42
aVeI
p2544
ag40
aVI2
p2545
ag7
asVsendin
p2546
(lp2547
g40
ag23
ag22
ag5
ag24
ag22
asVtogether
p2548
(lp2549
g3
ag4
ag21
ag23
ag174
ag88
asVgorilla
p2550
(lp2551
g21
ag88
ag68
ag24
ag29
ag4
asVloyal
p2552
(lp2553
g29
aVOI
p2554
aV@L
p2555
asVtime
p2556
(lp2557
g3
aVaI
p2558
ag19
asVpush
p2559
(lp2560
g42
ag141
ag116
asVbeamer
p2561
(lp2562
g74
aVi:
p2563
ag19
ag88
asVlaws
p2564
(lp2565
g29
aVO:
p2566
ag7
asVstacks
p2567
(lp2568
g40
ag3
ag20
ag25
ag40
asVsongs
p2569
(lp2570
g40
ag164
ag50
ag7
asVneighbors
p2571
(lp2572
g22
aVeI
p2573
ag74
ag88
ag7
asVgown
p2574
(lp2575
g21
aVaU
p2576
ag22
asVchain
p2577
(lp2578
VtS
p2579
aVeI
p2580
ag22
asVwhoever
p2581
(lp2582
g49
aVu:
p2583
ag23
ag131
ag88
asVdance
p2584
(lp2585
g5
aVaa
p2586
ag22
ag40
asVskip
p2587
(lp2588
g40
ag25
ag24
ag42
asVrob
p2589
(lp2590
g68
ag164
ag74
asVglide
p2591
(lp2592
g21
ag29
aVaI
p2593
ag5
asValternatives
p2594
(lp2595
VO:
p2596
ag29
ag3
aV3:
p2597
ag22
ag4
ag3
ag24
ag131
ag7
asVfocus
p2598
(lp2599
g36
aVoU
p2600
ag25
ag4
ag40
asVmanager
p2601
(lp2602
g19
ag20
ag22
aVI2
p2603
aVdZ
p2604
ag88
asVice
p2605
(lp2606
VaI
p2607
ag40
asVbandits
p2608
(lp2609
g74
ag20
ag22
ag5
ag24
ag3
ag40
asVskin
p2610
(lp2611
g40
ag25
ag24
ag22
asVbattle
p2612
(lp2613
g74
ag20
ag3
aV@L
p2614
asVfawcett
p2615
(lp2616
g36
aVO:
p2617
ag40
aVI2
p2618
ag3
asVseller
p2619
(lp2620
g40
ag23
ag29
ag88
asVskid
p2621
(lp2622
g40
ag25
ag24
ag5
asVrow
p2623
(lp2624
g68
aVoU
p2625
asVlayers
p2626
(lp2627
g29
aVeI
p2628
ag88
ag7
asVninetofive
p2629
(lp2630
g22
aVaI
p2631
ag22
ag3
ag4
ag36
ag24
ag131
asVsuicide
p2632
(lp2633
g40
aVu:
p2634
ag24
ag40
aVaI
p2635
ag5
asVwellmeaning
p2636
(lp2637
g101
ag23
ag29
ag19
aVi:
p2638
ag22
ag24
ag50
asVrakers
p2639
(lp2640
g68
aVeI
p2641
ag25
ag88
ag7
asVflash
p2642
(lp2643
g36
ag29
ag20
ag116
asVfather
p2644
(lp2645
g36
aVA:
p2646
ag174
ag88
asVcharge
p2647
(lp2648
VtS
p2649
aVA@
p2650
aVdZ
p2651
asVshouldda
p2652
(lp2653
g116
ag141
ag5
ag4
asVmarks
p2654
(lp2655
g19
aVA@
p2656
ag25
ag40
asVterror
p2657
(lp2658
g3
ag23
ag68
ag88
asVhammers
p2659
(lp2660
g49
ag20
ag19
ag88
ag7
asVterminatin
p2661
(lp2662
g3
aV3:
p2663
ag19
ag24
ag22
ag20
ag3
ag24
ag22
asVshoot
p2664
(lp2665
g116
aVu:
p2666
ag3
asVsalarys
p2667
(lp2668
g40
ag20
ag29
ag4
ag68
ag76
ag7
asVadvantage
p2669
(lp2670
Va#
p2671
ag5
ag131
aVaa
p2672
ag22
ag3
aVI2
p2673
aVdZ
p2674
asVgrill
p2675
(lp2676
g21
ag68
ag24
ag29
asVcheap
p2677
(lp2678
VtS
p2679
aVi:
p2680
ag42
asVnone
p2681
(lp2682
g22
ag164
ag22
asVwallets
p2683
(lp2684
g101
ag164
ag29
ag24
ag3
ag40
asVvegas
p2685
(lp2686
g131
aVeI
p2687
ag21
ag4
ag40
asVbustle
p2688
(lp2689
g74
ag75
ag40
aV@L
p2690
asVkitten
p2691
(lp2692
g25
ag24
ag3
ag4
ag22
asVcook
p2693
(lp2694
g25
ag141
ag25
asVsouthpaw
p2695
(lp2696
g40
aVaU
p2697
ag103
ag42
aVO:
p2698
asVfullest
p2699
(lp2700
g36
ag141
ag29
aVI2
p2701
ag40
ag3
asVhamlet
p2702
(lp2703
g49
ag20
ag19
ag29
aVI2
p2704
ag3
asVrapper
p2705
(lp2706
g68
ag20
ag42
ag88
asVminute
p2707
(lp2708
g19
ag24
ag22
ag24
ag3
asVcool
p2709
(lp2710
g25
aVu:
p2711
ag29
asVdim
p2712
(lp2713
g5
ag24
ag19
asVredding
p2714
(lp2715
g68
ag23
ag5
ag24
ag50
asVknockin
p2716
(lp2717
g22
ag164
ag25
ag24
ag22
asVlevel
p2718
(lp2719
g29
ag23
ag131
aV@L
p2720
asVdid
p2721
(lp2722
g5
ag24
ag5
asVdie
p2723
(lp2724
g5
aVaI
p2725
asVprimate
p2726
(lp2727
g42
ag68
aVaI
p2728
ag19
aVeI
p2729
ag3
asVpeeps
p2730
(lp2731
g42
aVi:
p2732
ag42
ag40
asVbrother
p2733
(lp2734
g74
ag68
ag75
ag174
ag88
asVgleamin
p2735
(lp2736
g21
ag29
aVi:
p2737
ag19
ag24
ag22
asVtemple
p2738
(lp2739
g3
ag23
ag19
ag42
aV@L
p2740
asVleave
p2741
(lp2742
g29
aVi:
p2743
ag131
asg42
(lp2744
g42
aVi:
p2745
asVsettle
p2746
(lp2747
g40
ag23
ag3
aV@L
p2748
asVcooke
p2749
(lp2750
g25
ag141
ag25
asVhittin
p2751
(lp2752
g49
ag24
ag3
ag24
ag22
asVteam
p2753
(lp2754
g3
aVi:
p2755
ag19
asVquick
p2756
(lp2757
g25
ag101
ag24
ag25
asVguy
p2758
(lp2759
g21
aVaI
p2760
asVround
p2761
(lp2762
g68
aVaU
p2763
ag22
ag5
asVyall
p2764
(lp2765
g32
aVO:
p2766
ag29
asVpoohbutt
p2767
(lp2768
g42
aVu:
p2769
ag49
ag74
ag75
ag3
asVolympic
p2770
(lp2771
g4
ag29
ag24
ag19
ag42
ag24
ag25
asVtalked
p2772
(lp2773
g3
aVO:
p2774
ag25
ag3
asVsays
p2775
(lp2776
g40
ag23
ag7
asVtougher
p2777
(lp2778
g3
ag75
ag36
ag88
asVdealing
p2779
(lp2780
g5
aVi:
p2781
ag29
ag24
ag50
asVsign
p2782
(lp2783
g40
aVaI
p2784
ag22
asVslippin
p2785
(lp2786
g40
ag29
ag24
ag42
ag24
ag22
asVcost
p2787
(lp2788
g25
ag164
ag40
ag3
asVdried
p2789
(lp2790
g5
ag68
aVaI
p2791
ag5
asVsqueek
p2792
(lp2793
g40
ag25
ag101
aVi:
p2794
ag25
asVbake
p2795
(lp2796
g74
aVeI
p2797
ag25
asVtargets
p2798
(lp2799
g3
aVA@
p2800
ag21
aVI2
p2801
ag3
ag40
asVcoppers
p2802
(lp2803
g25
ag164
ag42
ag88
ag7
asVlennox
p2804
(lp2805
g29
ag23
ag22
ag164
ag25
ag40
asVcurse
p2806
(lp2807
g25
aV3:
p2808
ag40
asVheres
p2809
(lp2810
g49
aVi@3
p2811
ag7
asVtakin
p2812
(lp2813
g3
ag20
ag25
ag24
ag22
asVuniform
p2814
(lp2815
g32
aVu:
p2816
ag22
ag24
ag36
aVO@
p2817
ag19
asVcurrent
p2818
(lp2819
g25
ag75
ag68
ag4
ag22
ag3
asVrub
p2820
(lp2821
g68
ag75
ag74
asVhustler
p2822
(lp2823
g49
ag75
ag40
ag29
ag88
asVgoes
p2824
(lp2825
g21
aVoU
p2826
ag7
asVportray
p2827
(lp2828
g42
aVo@
p2829
ag3
ag68
aVeI
p2830
asVfalling
p2831
(lp2832
g36
aVO:
p2833
ag29
ag24
ag50
asVappeal
p2834
(lp2835
Va#
p2836
ag42
aVi:
p2837
ag29
asVsweaters
p2838
(lp2839
g40
ag101
ag23
ag3
ag88
ag7
asVfilled
p2840
(lp2841
g36
ag24
ag29
ag5
asVtemperatures
p2842
(lp2843
g3
ag23
ag19
ag42
ag68
aVI2
p2844
aVtS
p2845
ag88
ag7
asVhummer
p2846
(lp2847
g49
ag75
ag19
ag88
asVburn
p2848
(lp2849
g74
aV3:
p2850
ag22
asVprescriptions
p2851
(lp2852
g42
ag68
ag24
ag40
ag25
ag68
ag24
ag42
ag116
ag4
ag22
ag7
asVblunted
p2853
(lp2854
g74
ag29
ag75
ag22
ag3
aVI2
p2855
ag5
asVfuneral
p2856
(lp2857
g36
ag32
aVu:
p2858
ag22
ag88
ag68
aV@L
p2859
asVdazed
p2860
(lp2861
g5
aVeI
p2862
ag7
ag5
asVridin
p2863
(lp2864
g68
ag24
ag5
ag24
ag22
asVperpendicular
p2865
(lp2866
g42
aV3:
p2867
ag42
ag4
ag22
ag5
ag24
ag25
ag32
ag141
ag29
ag88
asVwater
p2868
(lp2869
g101
aVO:
p2870
ag3
ag88
asVsuppressors
p2871
(lp2872
g40
ag4
ag42
ag68
ag23
ag40
ag88
ag7
asVyards
p2873
(lp2874
g32
aVA@
p2875
ag5
ag7
asVaddress
p2876
(lp2877
Va#
p2878
ag5
ag68
ag23
ag40
asValone
p2879
(lp2880
Va#
p2881
ag29
aVoU
p2882
ag22
asVsuckers
p2883
(lp2884
g40
ag75
ag25
ag88
ag7
asVcoochie
p2885
(lp2886
g25
aVu:
p2887
aVtS
p2888
ag76
asVstuntin
p2889
(lp2890
g40
ag3
ag75
ag22
ag3
ag24
ag22
asVwait
p2891
(lp2892
g101
aVeI
p2893
ag3
asVbox
p2894
(lp2895
g74
ag164
ag25
ag40
asVbuck
p2896
(lp2897
g74
ag75
ag25
asVpearly
p2898
(lp2899
g42
aV3:
p2900
ag29
ag76
asVeightyinch
p2901
(lp2902
VeI
p2903
ag3
ag24
ag12
ag24
ag22
aVtS
p2904
asVuzis
p2905
(lp2906
g32
aVu:
p2907
ag7
ag76
ag7
asVflames
p2908
(lp2909
g36
ag29
aVeI
p2910
ag19
ag7
asVhotties
p2911
(lp2912
g49
ag164
ag3
ag24
ag7
asVbop
p2913
(lp2914
g74
ag164
ag42
asVpearls
p2915
(lp2916
g42
aV3:
p2917
ag29
ag7
asVlakers
p2918
(lp2919
g29
aVeI
p2920
ag25
ag88
ag7
asVboo
p2921
(lp2922
g74
aVu:
p2923
asVbob
p2924
(lp2925
g74
ag164
ag74
asVshootouts
p2926
(lp2927
g116
aVu:
p2928
ag3
aVaU
p2929
ag3
ag40
asVwavin
p2930
(lp2931
g101
ag20
ag131
ag24
ag22
asVmotherfucking
p2932
(lp2933
g19
ag75
ag174
ag4
ag36
ag75
ag25
ag24
ag50
asVlove
p2934
(lp2935
g29
ag75
ag131
asVuzi
p2936
(lp2937
g32
aVu:
p2938
ag7
ag76
asVhumour
p2939
(lp2940
g49
ag32
aVu:
p2941
ag19
ag88
asVextra
p2942
(lp2943
g23
ag25
ag40
ag3
ag68
ag4
asVretired
p2944
(lp2945
g68
aVI2
p2946
ag3
aVaI@
p2947
ag5
asVlending
p2948
(lp2949
g29
ag23
ag22
ag5
ag24
ag50
asVyouknowhatimsayin
p2950
(lp2951
g32
aVaU
p2952
ag22
aVoU
p2953
ag49
ag20
ag3
ag24
ag19
ag40
aVeI
p2954
ag24
ag22
asVbloody
p2955
(lp2956
g74
ag29
ag75
ag5
ag76
asVfakers
p2957
(lp2958
g36
aVeI
p2959
ag25
ag88
ag7
asVfake
p2960
(lp2961
g36
aVeI
p2962
ag25
asVfirearm
p2963
(lp2964
g36
aVaI@
p2965
ag68
aVA@
p2966
ag19
asVmarket
p2967
(lp2968
g19
aVA@
p2969
ag25
ag24
ag3
asVred
p2970
(lp2971
g68
ag23
ag5
asVeverybody
p2972
(lp2973
g23
ag131
ag68
aVI2
p2974
ag74
ag164
ag5
ag76
asVayo
p2975
(lp2976
VaI
p2977
aVoU
p2978
asVwealth
p2979
(lp2980
g101
ag23
ag29
ag103
asVreclinin
p2981
(lp2982
g68
aVI2
p2983
ag25
ag29
ag24
ag22
ag24
ag22
asVflatline
p2984
(lp2985
g36
ag29
ag20
ag3
ag29
aVaI
p2986
ag22
asVsake
p2987
(lp2988
g40
aVeI
p2989
ag25
asVoverqualified
p2990
(lp2991
VoU
p2992
ag131
ag88
ag25
ag101
ag164
ag29
aVI2
p2993
ag36
aVaI
p2994
ag5
asVbugsy
p2995
(lp2996
g74
ag75
ag21
ag40
ag76
asVdude
p2997
(lp2998
g5
ag32
aVu:
p2999
ag5
asVonly
p3000
(lp3001
VoU
p3002
ag22
ag29
ag76
asVfrance
p3003
(lp3004
g36
ag68
aVaa
p3005
ag22
ag40
asVlive
p3006
(lp3007
g29
aVaI
p3008
ag131
asVwood
p3009
(lp3010
g101
ag141
ag5
asVmemory
p3011
(lp3012
g19
ag23
ag19
ag4
ag68
ag76
asVblack
p3013
(lp3014
g74
ag29
ag20
ag25
asVtoday
p3015
(lp3016
g3
ag4
ag5
aVeI
p3017
asVsignin
p3018
(lp3019
g40
ag24
ag21
ag22
ag24
ag22
asVsharing
p3020
(lp3021
g116
aVe@
p3022
ag68
aVI2
p3023
ag50
asVhuntin
p3024
(lp3025
g49
ag75
ag22
ag3
ag24
ag22
asVclub
p3026
(lp3027
g25
ag29
ag75
ag74
asVdistribution
p3028
(lp3029
g5
ag24
ag40
ag3
ag68
ag24
ag74
ag32
aVu:
p3030
ag116
ag4
ag22
asVchocolate
p3031
(lp3032
VtS
p3033
ag164
ag25
ag29
ag4
ag3
asVfixed
p3034
(lp3035
g36
ag24
ag25
ag40
ag3
asVeverywhere
p3036
(lp3037
g23
ag131
ag68
aVI2
p3038
ag101
aVe@
p3039
asVcases
p3040
(lp3041
g25
aVeI
p3042
ag40
aVI2
p3043
ag7
asVeffort
p3044
(lp3045
g23
ag36
ag88
ag3
asVdrivebys
p3046
(lp3047
g5
ag68
aVaI
p3048
ag131
ag74
ag76
ag7
asVfly
p3049
(lp3050
g36
ag29
aVaI
p3051
asVgraphic
p3052
(lp3053
g21
ag68
ag20
ag36
ag24
ag25
asVanything
p3054
(lp3055
g23
ag22
aVI2
p3056
ag103
ag24
ag50
asVniggas
p3057
(lp3058
g22
ag24
ag21
ag4
ag7
asVdrago
p3059
(lp3060
g5
ag68
aVeI
p3061
ag21
aVoU
p3062
asVcar
p3063
(lp3064
g25
aVA@
p3065
asVcap
p3066
(lp3067
g25
ag20
ag42
asVabortion
p3068
(lp3069
Va#
p3070
ag74
aVO@
p3071
ag116
ag4
ag22
asVsoul
p3072
(lp3073
g40
aVoU
p3074
ag29
asVpayin
p3075
(lp3076
g42
aVeI
p3077
ag24
ag22
asVcat
p3078
(lp3079
g25
ag20
ag3
asVpurge
p3080
(lp3081
g42
aV3:
p3082
aVdZ
p3083
asVdyin
p3084
(lp3085
g5
aVaI
p3086
ag24
ag22
asVlabeled
p3087
(lp3088
g29
aVeI
p3089
ag74
aV@L
p3090
ag5
asVcan
p3091
(lp3092
g25
ag20
ag22
asVpanamera
p3093
(lp3094
g42
ag20
ag22
aVa#
p3095
ag19
ag88
ag68
ag4
asVfollowing
p3096
(lp3097
g36
ag164
ag29
aVoU
p3098
ag24
ag50
asVmaking
p3099
(lp3100
g19
aVeI
p3101
ag25
ag24
ag50
asVzippers
p3102
(lp3103
g7
ag24
ag42
ag88
ag7
asVinterstate
p3104
(lp3105
g24
ag22
ag3
ag88
ag40
ag3
aVeI
p3106
ag3
asVdollars
p3107
(lp3108
g5
ag164
ag29
ag88
ag7
asVscramblers
p3109
(lp3110
g40
ag25
ag68
ag20
ag19
ag74
ag29
ag88
ag7
asVheart
p3111
(lp3112
g49
aVA@
p3113
ag3
asVcrazy
p3114
(lp3115
g25
ag68
aVeI
p3116
ag7
ag76
asViodine
p3117
(lp3118
VaI
p3119
ag4
ag5
aVi:
p3120
ag22
asVfigure
p3121
(lp3122
g36
ag24
ag21
ag88
asVmirrors
p3123
(lp3124
g19
ag24
ag68
ag88
ag7
asVawesome
p3125
(lp3126
VO:
p3127
ag40
ag75
ag19
asVnear
p3128
(lp3129
g22
aVi@3
p3130
asVheard
p3131
(lp3132
g49
aV3:
p3133
ag5
asVtinted
p3134
(lp3135
g3
ag24
ag22
ag3
aVI2
p3136
ag5
asVremanded
p3137
(lp3138
g68
aVI2
p3139
ag19
aVaa
p3140
ag22
ag5
aVI2
p3141
ag5
asVdropped
p3142
(lp3143
g5
ag68
ag164
ag42
ag3
asVsidewalks
p3144
(lp3145
g40
aVaI
p3146
ag5
ag101
aVO:
p3147
ag25
ag40
asVhandle
p3148
(lp3149
g49
ag20
ag22
ag5
aV@L
p3150
asVstole
p3151
(lp3152
g40
ag3
aVoU
p3153
ag29
asVrays
p3154
(lp3155
g68
aVeI
p3156
ag7
asVwinter
p3157
(lp3158
g101
ag24
ag22
ag3
ag88
asVtilt
p3159
(lp3160
g3
ag24
ag29
ag3
asVfoul
p3161
(lp3162
g36
aVaU
p3163
ag29
asVfreezes
p3164
(lp3165
g36
ag68
aVi:
p3166
ag7
aVI2
p3167
ag7
asVwrite
p3168
(lp3169
g68
aVaI
p3170
ag3
asVtill
p3171
(lp3172
g3
ag24
ag29
asVtile
p3173
(lp3174
g3
aVaI
p3175
ag29
asVcoleman
p3176
(lp3177
g25
aVoU
p3178
ag29
ag19
ag4
ag22
asVstrays
p3179
(lp3180
g40
ag3
ag68
aVeI
p3181
ag7
asVdosin
p3182
(lp3183
g5
ag164
ag40
ag24
ag22
asVmap
p3184
(lp3185
g19
ag20
ag42
asVsnaps
p3186
(lp3187
g40
ag22
ag20
ag42
ag40
asVleavin
p3188
(lp3189
g29
aVi:
p3190
ag131
ag24
ag22
asVfreckle
p3191
(lp3192
g36
ag68
ag23
ag25
aV@L
p3193
asVcritics
p3194
(lp3195
g25
ag68
ag24
ag3
ag24
ag25
ag40
asVfed
p3196
(lp3197
g36
ag23
ag5
asVeighty
p3198
(lp3199
VeI
p3200
ag3
ag76
asVlucky
p3201
(lp3202
g29
ag75
ag25
ag76
asVmac
p3203
(lp3204
g19
ag20
ag25
asVstarin
p3205
(lp3206
g40
ag3
aVA@
p3207
ag68
ag24
ag22
asVmad
p3208
(lp3209
g19
ag20
ag5
asVmustve
p3210
(lp3211
g19
ag75
ag40
ag3
ag131
asVguys
p3212
(lp3213
g21
aVaI
p3214
ag7
asVgrow
p3215
(lp3216
g21
ag68
aVoU
p3217
asVman
p3218
(lp3219
g19
ag20
ag22
asVstress
p3220
(lp3221
g40
ag3
ag68
ag23
ag40
asVvtwelves
p3222
(lp3223
g131
aVi:
p3224
ag3
ag101
ag23
ag29
ag131
ag7
asVneck
p3225
(lp3226
g22
ag23
ag25
asVbeam
p3227
(lp3228
g74
aVi:
p3229
ag19
asVwhenever
p3230
(lp3231
g101
ag23
ag22
ag23
ag131
ag88
asVmaybe
p3232
(lp3233
g19
aVeI
p3234
ag74
aVi:
p3235
asVborrowing
p3236
(lp3237
g74
ag164
ag68
aVoU
p3238
ag24
ag50
asVrollin
p3239
(lp3240
g68
aVoU
p3241
ag29
aVI2
p3242
ag22
asVswitch
p3243
(lp3244
g40
ag101
ag24
aVtS
p3245
asVreaper
p3246
(lp3247
g68
aVi:
p3248
ag42
ag88
asVjail
p3249
(lp3250
VdZ
p3251
aVeI
p3252
ag29
asVblock
p3253
(lp3254
g74
ag29
ag164
ag25
asVdeceive
p3255
(lp3256
g5
aVI2
p3257
ag40
aVi:
p3258
ag131
asVsnowed
p3259
(lp3260
g40
ag22
aVoU
p3261
ag5
asVwolves
p3262
(lp3263
g101
ag141
ag29
ag131
ag7
asVpulled
p3264
(lp3265
g42
ag141
ag29
ag5
asVtalk
p3266
(lp3267
g3
aVO:
p3268
ag25
asVhands
p3269
(lp3270
g49
ag20
ag22
ag5
ag7
asVsnapple
p3271
(lp3272
g40
ag22
ag20
ag42
aV@L
p3273
asVserving
p3274
(lp3275
g40
aV3:
p3276
ag131
ag24
ag50
asVshoes
p3277
(lp3278
g116
aVu:
p3279
ag7
asVtracies
p3280
(lp3281
g3
ag68
aVeI
p3282
ag40
ag76
ag7
asVmidnight
p3283
(lp3284
g19
ag24
ag5
ag22
aVaI
p3285
ag3
asVprimitive
p3286
(lp3287
g42
ag68
ag24
ag19
aVI2
p3288
ag3
ag24
ag131
asVyears
p3289
(lp3290
g32
aVi@3
p3291
ag7
asVended
p3292
(lp3293
g23
ag22
ag5
aVI2
p3294
ag5
asVlyric
p3295
(lp3296
g29
ag24
ag68
ag24
ag25
asVcrack
p3297
(lp3298
g25
ag68
ag20
ag25
asVmotions
p3299
(lp3300
g19
aVoU
p3301
ag116
ag4
ag22
ag7
asVshake
p3302
(lp3303
g116
aVeI
p3304
ag25
asVwhats
p3305
(lp3306
g101
ag164
ag3
ag40
asVcold
p3307
(lp3308
g25
aVoU
p3309
ag29
ag5
asVstill
p3310
(lp3311
g40
ag3
ag24
ag29
asVbirds
p3312
(lp3313
g74
aV3:
p3314
ag5
ag7
asVcola
p3315
(lp3316
g25
aVoU
p3317
ag29
ag4
asVsplurge
p3318
(lp3319
g40
ag42
ag29
aV3:
p3320
aVdZ
p3321
asVpolice
p3322
(lp3323
g42
ag4
ag29
aVi:
p3324
ag40
asVthumb
p3325
(lp3326
g103
ag75
ag19
asVduplex
p3327
(lp3328
g5
ag32
aVu:
p3329
ag42
ag29
ag23
ag25
ag40
asVthang
p3330
(lp3331
g103
ag20
ag50
asVamazing
p3332
(lp3333
Va#
p3334
ag19
aVeI
p3335
ag7
ag24
ag50
asVpitchin
p3336
(lp3337
g42
ag24
aVtS
p3338
ag24
ag22
asVspacious
p3339
(lp3340
g40
ag42
aVeI
p3341
ag116
ag4
ag40
asVmail
p3342
(lp3343
g19
aVeI
p3344
ag29
asVmain
p3345
(lp3346
g19
aVeI
p3347
ag22
asVstyle
p3348
(lp3349
g40
ag3
aVaI
p3350
ag29
asVinto
p3351
(lp3352
g24
ag22
ag3
ag141
asVhappened
p3353
(lp3354
g49
ag20
ag42
ag4
ag22
ag5
asVlonely
p3355
(lp3356
g29
aVoU
p3357
ag22
ag29
ag76
asVtucked
p3358
(lp3359
g3
ag75
ag25
ag3
asVmoms
p3360
(lp3361
g19
ag164
ag19
ag7
asVbein
p3362
(lp3363
g74
aVeI
p3364
ag22
asVkiller
p3365
(lp3366
g25
ag24
ag29
ag88
asVfeelin
p3367
(lp3368
g36
aVi:
p3369
ag29
ag24
ag22
asVunderneath
p3370
(lp3371
g75
ag22
ag5
ag88
ag22
aVi:
p3372
ag103
asVhalf
p3373
(lp3374
g49
aVA:
p3375
ag36
asVnot
p3376
(lp3377
g22
ag164
ag3
asVscorsese
p3378
(lp3379
g40
ag25
aVo@
p3380
ag40
aVi:
p3381
ag7
asVnow
p3382
(lp3383
g22
aVaU
p3384
asVkilled
p3385
(lp3386
g25
ag24
ag29
ag5
asVhalo
p3387
(lp3388
g49
aVeI
p3389
ag29
aVoU
p3390
asVbestest
p3391
(lp3392
g74
ag23
ag40
ag3
ag4
ag40
ag3
asVwont
p3393
(lp3394
g101
ag164
ag22
ag3
asVwagon
p3395
(lp3396
g101
ag20
ag21
ag4
ag22
asVname
p3397
(lp3398
g22
aVeI
p3399
ag19
asVdrop
p3400
(lp3401
g5
ag68
ag164
ag42
asVfizdale
p3402
(lp3403
g36
ag24
ag7
ag5
aVeI
p3404
ag29
asVlucci
p3405
(lp3406
g29
aVu:
p3407
aVtS
p3408
ag76
asVrealise
p3409
(lp3410
g68
aVi@
p3411
ag29
aVaI
p3412
ag7
asVrock
p3413
(lp3414
g68
ag164
ag25
asVveins
p3415
(lp3416
g131
aVeI
p3417
ag22
ag7
asVeighties
p3418
(lp3419
VeI
p3420
ag3
ag76
ag7
asVquarter
p3421
(lp3422
g25
ag101
aVO@
p3423
ag3
ag88
asVseldom
p3424
(lp3425
g40
ag23
ag29
ag5
ag4
ag19
asVem
p3426
(lp3427
g23
ag19
asVmarried
p3428
(lp3429
g19
ag20
ag68
ag76
ag5
asVhopefully
p3430
(lp3431
g49
aVoU
p3432
ag42
ag36
ag4
ag29
ag76
asVscheme
p3433
(lp3434
g40
ag25
aVi:
p3435
ag19
asVkane
p3436
(lp3437
g25
aVeI
p3438
ag22
asVtreacherous
p3439
(lp3440
g3
ag68
ag23
aVtS
p3441
ag4
ag68
ag4
ag40
asVyeah
p3442
(lp3443
g32
ag23
ag49
asVsnapshots
p3444
(lp3445
g40
ag22
ag20
ag42
ag116
ag164
ag3
ag40
asVmeltin
p3446
(lp3447
g19
ag23
ag29
ag3
ag24
ag22
asVfires
p3448
(lp3449
g36
aVaI@
p3450
ag7
asVpersian
p3451
(lp3452
g42
aV3:
p3453
ag46
ag4
ag22
asVboohoos
p3454
(lp3455
g74
aVu:
p3456
ag49
aVu:
p3457
ag7
asVyear
p3458
(lp3459
g32
aVi@3
p3460
asVgirl
p3461
(lp3462
g21
aV3:
p3463
ag29
asVplans
p3464
(lp3465
g42
ag29
ag20
ag22
ag7
asVliving
p3466
(lp3467
g29
ag24
ag131
ag24
ag50
asVjackson
p3468
(lp3469
VdZ
p3470
ag20
ag25
ag40
ag4
ag22
asVstitch
p3471
(lp3472
g40
ag3
ag24
aVtS
p3473
asVprofit
p3474
(lp3475
g42
ag68
ag164
ag36
ag24
ag3
asVlooking
p3476
(lp3477
g29
ag141
ag25
ag24
ag50
asVruck
p3478
(lp3479
g68
ag75
ag25
asVattitude
p3480
(lp3481
g20
ag3
ag24
ag3
ag32
aVu:
p3482
ag5
asVmiles
p3483
(lp3484
g19
aVaI
p3485
ag29
ag7
asVopportunists
p3486
(lp3487
g164
ag42
ag88
ag3
ag32
aVu:
p3488
ag22
ag24
ag40
ag3
ag40
asVcadillac
p3489
(lp3490
g25
ag20
ag5
ag24
ag29
ag20
ag25
asVroger
p3491
(lp3492
g68
ag164
aVdZ
p3493
ag88
asVgram
p3494
(lp3495
g21
ag68
ag20
ag19
asVmaneuver
p3496
(lp3497
g19
ag4
ag22
aVu:
p3498
ag131
ag88
asVcomplicates
p3499
(lp3500
g25
ag164
ag19
ag42
ag29
aVI2
p3501
ag25
aVeI
p3502
ag3
ag40
asVhula
p3503
(lp3504
g49
aVu:
p3505
ag29
ag4
asVmonster
p3506
(lp3507
g19
ag164
ag22
ag40
ag3
ag88
asVquran
p3508
(lp3509
g25
ag101
ag4
ag68
ag20
ag22
asVcars
p3510
(lp3511
g25
aVA@
p3512
ag7
asVmillion
p3513
(lp3514
g19
ag24
ag29
aVi@
p3515
ag22
asVromans
p3516
(lp3517
g68
aVoU
p3518
ag19
ag4
ag22
ag7
asVdig
p3519
(lp3520
g5
ag24
ag21
asVrebel
p3521
(lp3522
g68
ag23
ag74
aV@L
p3523
asVgrandma
p3524
(lp3525
g21
ag68
ag20
ag22
ag5
ag19
aVA:
p3526
asVgots
p3527
(lp3528
g21
ag164
ag3
ag40
asVscarred
p3529
(lp3530
g40
ag25
aVA@
p3531
ag5
asVcard
p3532
(lp3533
g25
aVA@
p3534
ag5
asVcare
p3535
(lp3536
g25
aVe@
p3537
asVyellin
p3538
(lp3539
g32
ag23
ag29
aVI2
p3540
ag22
asVadvance
p3541
(lp3542
Va#
p3543
ag5
ag131
ag20
ag22
ag40
asVtraining
p3544
(lp3545
g3
ag68
aVeI
p3546
ag22
ag24
ag50
asVjakes
p3547
(lp3548
VdZ
p3549
aVeI
p3550
ag25
ag40
asVdisguised
p3551
(lp3552
g5
aVI2
p3553
ag40
ag21
aVaI
p3554
ag7
ag5
asVflare
p3555
(lp3556
g36
ag29
aVe@
p3557
asVmelly
p3558
(lp3559
g19
ag23
ag29
ag76
asVpictures
p3560
(lp3561
g42
ag24
ag25
aVtS
p3562
ag88
ag7
asVcalories
p3563
(lp3564
g25
ag20
ag29
ag4
ag68
ag76
ag7
asVbritish
p3565
(lp3566
g74
ag68
ag24
ag3
ag24
ag116
asVostrich
p3567
(lp3568
g164
ag40
ag3
ag68
ag24
aVtS
p3569
asVchevy
p3570
(lp3571
g116
ag23
ag131
ag76
asVthing
p3572
(lp3573
g103
ag24
ag50
asVperson
p3574
(lp3575
g42
aV3:
p3576
ag40
ag4
ag22
asVplace
p3577
(lp3578
g42
ag29
aVeI
p3579
ag40
asVorgoin
p3580
(lp3581
VO@
p3582
ag21
aVOI
p3583
ag22
asVbrutalize
p3584
(lp3585
g74
ag68
aVu:
p3586
ag3
aV@L
p3587
aVaI
p3588
ag7
asVturf
p3589
(lp3590
g3
aV3:
p3591
ag36
asVthink
p3592
(lp3593
g103
ag24
ag50
ag25
asVporsches
p3594
(lp3595
g42
aVo@
p3596
ag116
aVI2
p3597
ag7
asVblind
p3598
(lp3599
g74
ag29
aVaI
p3600
ag22
ag5
asVflying
p3601
(lp3602
g36
ag29
aVaI
p3603
ag24
ag50
asVhoppin
p3604
(lp3605
g49
ag164
ag42
ag24
ag22
asVspoken
p3606
(lp3607
g40
ag42
aVoU
p3608
ag25
ag4
ag22
asVlone
p3609
(lp3610
g29
aVoU
p3611
ag22
asVwaves
p3612
(lp3613
g101
aVeI
p3614
ag131
ag7
asVcrib
p3615
(lp3616
g25
ag68
ag24
ag74
asVone
p3617
(lp3618
g101
ag164
ag22
asVfast
p3619
(lp3620
g36
aVaa
p3621
ag40
ag3
asVrink
p3622
(lp3623
g68
ag24
ag50
ag25
asVuncle
p3624
(lp3625
g75
ag50
ag25
aV@L
p3626
asVchubby
p3627
(lp3628
VtS
p3629
ag75
ag74
ag76
asVsounds
p3630
(lp3631
g40
aVaU
p3632
ag22
ag5
ag7
asVopen
p3633
(lp3634
VoU
p3635
ag42
ag4
ag22
asVtomorrow
p3636
(lp3637
g3
ag4
ag19
ag164
ag68
aVoU
p3638
asVsize
p3639
(lp3640
g40
aVaI
p3641
ag7
asVrented
p3642
(lp3643
g68
ag23
ag22
ag3
aVI2
p3644
ag5
asVcity
p3645
(lp3646
g40
ag24
ag3
ag76
asVlittle
p3647
(lp3648
g29
ag24
ag3
aV@L
p3649
asVboulevard
p3650
(lp3651
g74
aVu:
p3652
ag29
aVI2
p3653
ag131
aVA@
p3654
ag5
asVduracell
p3655
(lp3656
g5
ag32
aVU@
p3657
ag68
ag4
ag40
ag23
ag29
asVslept
p3658
(lp3659
g40
ag29
ag23
ag42
ag3
asVchecker
p3660
(lp3661
VtS
p3662
ag23
ag25
ag88
asVtell
p3663
(lp3664
g3
ag23
ag29
asVtheatrics
p3665
(lp3666
g103
aVi:
p3667
ag12
ag20
ag3
ag68
ag24
ag25
ag40
asVwhite
p3668
(lp3669
g101
aVaI
p3670
ag3
asVbits
p3671
(lp3672
g74
ag24
ag3
ag40
asVframe
p3673
(lp3674
g36
ag68
aVeI
p3675
ag19
asVspeaking
p3676
(lp3677
g40
ag42
aVi:
p3678
ag25
ag24
ag50
asVanus
p3679
(lp3680
VeI
p3681
ag22
ag75
ag40
asVeyes
p3682
(lp3683
VaI
p3684
ag7
asVcopa
p3685
(lp3686
g25
aVoU
p3687
ag42
ag4
asVmostly
p3688
(lp3689
g19
aVoU
p3690
ag40
ag3
ag29
ag76
asVthat
p3691
(lp3692
g174
ag20
ag3
asVbrains
p3693
(lp3694
g74
ag68
aVeI
p3695
ag22
ag7
asVcausin
p3696
(lp3697
g25
aVO:
p3698
ag7
ag4
ag22
asVhuh
p3699
(lp3700
g49
ag75
asVsnatch
p3701
(lp3702
g40
ag22
ag20
aVtS
p3703
asVcops
p3704
(lp3705
g25
ag164
ag42
ag40
asVshort
p3706
(lp3707
g116
aVO@
p3708
ag3
asVherds
p3709
(lp3710
g49
aV3:
p3711
ag5
ag7
asVshirley
p3712
(lp3713
g116
aV3:
p3714
ag29
ag76
asVthan
p3715
(lp3716
g174
aVa#
p3717
ag22
asVwide
p3718
(lp3719
g101
aVaI
p3720
ag5
asVgotti
p3721
(lp3722
g21
ag164
ag3
ag76
asVcolombians
p3723
(lp3724
g25
ag4
ag29
ag75
ag19
ag74
aVi@
p3725
ag22
ag7
asVboastin
p3726
(lp3727
g74
aVoU
p3728
ag40
ag3
ag24
ag22
asVgotta
p3729
(lp3730
g21
ag164
ag3
ag4
asVkarate
p3731
(lp3732
g25
ag4
ag68
aVA:
p3733
ag3
ag76
asVfuture
p3734
(lp3735
g36
ag32
aVu:
p3736
aVtS
p3737
ag88
asVvocals
p3738
(lp3739
g131
aVoU
p3740
ag25
aV@L
p3741
ag7
asVseventys
p3742
(lp3743
g40
ag23
ag131
ag4
ag22
ag3
ag76
ag7
asVwere
p3744
(lp3745
g101
aV3:
p3746
asVtouch
p3747
(lp3748
g3
ag75
ag116
aVeI
p3749
asVand
p3750
(lp3751
g20
ag22
ag5
asVlick
p3752
(lp3753
g29
ag24
ag25
asVsam
p3754
(lp3755
g40
ag20
ag19
asVslay
p3756
(lp3757
g40
ag29
aVeI
p3758
asVhoes
p3759
(lp3760
g49
aVoU
p3761
ag7
asVturned
p3762
(lp3763
g3
aV3:
p3764
ag22
ag5
asVhershey
p3765
(lp3766
g49
aV3:
p3767
ag116
ag76
asValley
p3768
(lp3769
g20
ag29
ag24
asVsad
p3770
(lp3771
g40
ag20
ag5
asVdash
p3772
(lp3773
g5
ag20
ag116
asVbristal
p3774
(lp3775
g74
ag68
ag24
ag40
ag3
aV@L
p3776
asVsay
p3777
(lp3778
g40
aVeI
p3779
asVslam
p3780
(lp3781
g40
ag29
ag20
ag19
asVrent
p3782
(lp3783
g68
ag23
ag22
ag3
asVmade
p3784
(lp3785
g19
aVeI
p3786
ag5
asVanger
p3787
(lp3788
g20
ag50
ag21
ag88
asVbreakfast
p3789
(lp3790
g74
ag68
ag23
ag25
ag36
ag4
ag40
ag3
asVborough
p3791
(lp3792
g74
ag75
ag68
ag4
asVsaw
p3793
(lp3794
g40
aVO:
p3795
asVany
p3796
(lp3797
g23
ag22
ag76
asVsat
p3798
(lp3799
g40
ag20
ag3
asVmazis
p3800
(lp3801
g19
ag20
ag7
ag76
ag7
asVgodson
p3802
(lp3803
g21
ag164
ag5
ag40
ag4
ag22
asVhookah
p3804
(lp3805
g49
ag141
ag25
ag4
asVtake
p3806
(lp3807
g3
aVeI
p3808
ag25
asVdestroy
p3809
(lp3810
g5
aVI2
p3811
ag40
ag3
ag68
aVOI
p3812
asVtambourine
p3813
(lp3814
g3
ag20
ag19
ag74
ag4
ag68
ag12
aVi:
p3815
ag22
asVencouraged
p3816
(lp3817
g23
ag50
ag25
ag75
ag68
aVI2
p3818
aVdZ
p3819
ag5
asVgrammys
p3820
(lp3821
g21
ag68
ag20
ag19
ag24
ag7
asVpagers
p3822
(lp3823
g42
aVeI
p3824
aVdZ
p3825
ag88
ag7
asVbets
p3826
(lp3827
g74
ag23
ag3
ag40
asVteflon
p3828
(lp3829
g3
ag23
ag36
ag29
ag164
ag22
asVsure
p3830
(lp3831
g116
aVU@
p3832
asVpain
p3833
(lp3834
g42
aVeI
p3835
ag22
asVtrack
p3836
(lp3837
g3
ag68
ag20
ag25
asVprice
p3838
(lp3839
g42
ag68
aVaI
p3840
ag40
asVkeeps
p3841
(lp3842
g25
aVi:
p3843
ag42
ag40
asVpharaoh
p3844
(lp3845
g36
aVe@
p3846
ag68
aVoU
p3847
asVpaid
p3848
(lp3849
g42
aVeI
p3850
ag5
asVassumers
p3851
(lp3852
Va#
p3853
ag40
aVu:
p3854
ag19
ag88
ag7
asVconsignment
p3855
(lp3856
g25
ag4
ag22
ag40
aVaI
p3857
ag22
ag19
ag4
ag22
ag3
asVshotties
p3858
(lp3859
g116
ag164
ag3
ag24
ag7
asVchromell
p3860
(lp3861
g25
ag68
aVoU
p3862
ag19
ag29
asVeightyfour
p3863
(lp3864
VeI
p3865
ag3
ag24
ag36
aVo@
p3866
asVknee
p3867
(lp3868
g22
aVi:
p3869
asVtracy
p3870
(lp3871
g3
ag68
aVeI
p3872
ag40
ag76
asVpages
p3873
(lp3874
g42
aVeI
p3875
aVdZ
p3876
aVI2
p3877
ag7
asVdoucey
p3878
(lp3879
g5
aVaU
p3880
ag40
ag76
asVglamour
p3881
(lp3882
g21
ag29
ag20
ag19
ag88
asVforever
p3883
(lp3884
g36
ag88
ag68
ag12
ag23
ag131
ag88
asVapproachin
p3885
(lp3886
Va#
p3887
ag42
ag68
aVoU
p3888
aVtS
p3889
ag24
ag22
asVcloset
p3890
(lp3891
g25
ag29
ag164
ag7
aVI2
p3892
ag3
asVboys
p3893
(lp3894
g74
aVOI
p3895
ag7
asVtouchy
p3896
(lp3897
g3
ag75
aVtS
p3898
ag76
asVbangin
p3899
(lp3900
g74
ag20
ag50
ag21
ag24
ag22
asVaverage
p3901
(lp3902
g20
ag131
ag4
ag12
ag68
aVI2
p3903
aVdZ
p3904
asVphil
p3905
(lp3906
g36
ag24
ag29
asVsteady
p3907
(lp3908
g40
ag3
ag23
ag5
ag76
asVhungry
p3909
(lp3910
g49
ag75
ag50
ag21
ag68
ag76
asVpores
p3911
(lp3912
g42
aVo@
p3913
ag7
asVwing
p3914
(lp3915
g101
ag24
ag50
asVways
p3916
(lp3917
g101
aVeI
p3918
ag7
asVlarry
p3919
(lp3920
g29
ag20
ag68
ag76
asVunderstandable
p3921
(lp3922
g75
ag22
ag5
ag88
ag40
ag3
ag20
ag22
ag5
ag4
ag74
aV@L
p3923
asVnightmare
p3924
(lp3925
g22
aVaI
p3926
ag3
ag19
aVe@
p3927
asVpoundseven
p3928
(lp3929
g42
aVaU
p3930
ag22
ag5
ag40
ag23
ag131
ag4
ag22
asVprecise
p3931
(lp3932
g42
ag68
aVI2
p3933
ag40
aVaI
p3934
ag40
asVshot
p3935
(lp3936
g116
ag164
ag3
asVcherry
p3937
(lp3938
VtS
p3939
ag23
ag68
ag76
asVshow
p3940
(lp3941
g116
aVoU
p3942
asVcheat
p3943
(lp3944
VtS
p3945
aVi:
p3946
ag3
asVable
p3947
(lp3948
VeI
p3949
ag74
aV@L
p3950
asVbenihanas
p3951
(lp3952
g74
aVI2
p3953
ag22
ag24
ag49
aVA:
p3954
ag22
ag4
ag7
asVfifty
p3955
(lp3956
g36
ag24
ag36
ag3
ag76
asVpercy
p3957
(lp3958
g42
aV3:
p3959
ag40
ag76
asVjumuah
p3960
(lp3961
VdZ
p3962
aVu:
p3963
ag19
ag32
aVu:
p3964
ag4
asVbright
p3965
(lp3966
g74
ag68
aVaI
p3967
ag3
asVspaces
p3968
(lp3969
g40
ag42
aVeI
p3970
ag40
aVI2
p3971
ag7
asVcommissary
p3972
(lp3973
g25
ag4
ag19
ag24
ag40
ag4
ag68
ag76
asVheadshot
p3974
(lp3975
g49
ag23
ag5
ag116
ag164
ag3
asVpump
p3976
(lp3977
g42
ag75
ag19
ag42
asVcorner
p3978
(lp3979
g25
aVO@
p3980
ag22
ag88
asVmolars
p3981
(lp3982
g19
aVoU
p3983
ag29
ag88
ag7
asVtend
p3984
(lp3985
g3
ag23
ag22
ag5
asVmister
p3986
(lp3987
g19
ag24
ag40
ag3
ag88
asVfifth
p3988
(lp3989
g36
ag24
ag36
ag103
asVground
p3990
(lp3991
g21
ag68
aVaU
p3992
ag22
ag5
asVaint
p3993
(lp3994
VeI
p3995
ag22
ag3
asVslow
p3996
(lp3997
g40
ag29
aVoU
p3998
asVratio
p3999
(lp4000
g68
aVeI
p4001
ag116
aVI2
p4002
ag12
aVoU
p4003
asVdice
p4004
(lp4005
g5
aVaI
p4006
ag40
asVentities
p4007
(lp4008
g23
ag22
ag3
aVI2
p4009
ag3
ag76
ag7
asVmiami
p4010
(lp4011
g19
aVaI
p4012
ag12
ag20
ag19
ag76
asVzombie
p4013
(lp4014
g7
ag164
ag19
ag74
ag76
asVdick
p4015
(lp4016
g5
ag24
ag25
asVoutside
p4017
(lp4018
VaU
p4019
ag3
ag40
aVaI
p4020
ag5
asVcrime
p4021
(lp4022
g25
ag68
aVaI
p4023
ag19
asVotis
p4024
(lp4025
VoU
p4026
ag3
ag24
ag40
asVtears
p4027
(lp4028
g3
aVi@3
p4029
ag7
asVgoing
p4030
(lp4031
g21
aVoU
p4032
ag24
ag50
asVactin
p4033
(lp4034
g20
ag25
ag3
ag24
ag22
asVincinerator
p4035
(lp4036
g24
ag22
ag40
ag24
ag22
ag88
ag68
aVeI
p4037
ag3
ag88
asVwarplace
p4038
(lp4039
g101
aVO@
p4040
ag42
ag29
aVeI
p4041
ag40
asVcanibus
p4042
(lp4043
g25
ag20
ag22
ag24
ag74
ag4
ag40
asVclank
p4044
(lp4045
g25
ag29
ag20
ag50
ag25
asVget
p4046
(lp4047
g21
ag23
ag3
asVcannon
p4048
(lp4049
g25
ag20
ag22
ag4
ag22
asVdiamonds
p4050
(lp4051
g5
aVaI@
p4052
ag19
ag4
ag22
ag5
ag7
asVgshock
p4053
(lp4054
VdZ
p4055
aVi:
p4056
ag116
ag164
ag25
asVtens
p4057
(lp4058
g3
ag23
ag22
ag7
asVkillers
p4059
(lp4060
g25
ag24
ag29
ag88
ag7
asVnearly
p4061
(lp4062
g22
aVi@3
p4063
ag29
ag76
asVged
p4064
(lp4065
VdZ
p4066
ag23
ag5
asVcryin
p4067
(lp4068
g25
ag68
aVaI
p4069
ag24
ag22
asVcelebrate
p4070
(lp4071
g40
ag23
ag29
ag4
ag74
ag68
aVeI
p4072
ag3
asVnieces
p4073
(lp4074
g22
aVi:
p4075
ag40
aVI2
p4076
ag7
asVprime
p4077
(lp4078
g42
ag68
aVaI
p4079
ag19
asVprima
p4080
(lp4081
g42
ag68
aVi:
p4082
ag19
ag4
asVpimp
p4083
(lp4084
g42
ag24
ag19
ag42
asVleather
p4085
(lp4086
g29
ag23
ag174
ag88
asVyoull
p4087
(lp4088
g32
aVaU
p4089
ag29
asVdramas
p4090
(lp4091
g5
ag68
aVA:
p4092
ag19
ag4
ag7
asVlandcruiser
p4093
(lp4094
g29
ag20
ag22
ag5
ag25
ag68
aVu:
p4095
ag7
ag88
asVborrow
p4096
(lp4097
g74
ag164
ag68
aVoU
p4098
asVworried
p4099
(lp4100
g101
ag75
ag68
ag76
ag5
asVjokes
p4101
(lp4102
VdZ
p4103
aVoU
p4104
ag25
ag40
asVstupid
p4105
(lp4106
g40
ag3
ag32
aVu:
p4107
ag42
ag24
ag5
asVclowns
p4108
(lp4109
g25
ag29
aVaU
p4110
ag22
ag7
asVlandlord
p4111
(lp4112
g29
ag20
ag22
ag5
ag29
aVO@
p4113
ag5
asVsplittin
p4114
(lp4115
g40
ag42
ag29
ag24
ag3
ag24
ag22
asVthrough
p4116
(lp4117
g103
ag68
aVu:
p4118
asVpants
p4119
(lp4120
g42
aVaa
p4121
ag22
ag3
ag40
asVwhere
p4122
(lp4123
g101
aVe@
p4124
asVlayin
p4125
(lp4126
g29
aVeI
p4127
ag24
ag22
asVvision
p4128
(lp4129
g131
ag24
ag46
ag4
ag22
asVsirens
p4130
(lp4131
g40
aVaI
p4132
ag68
ag4
ag22
ag7
asVseat
p4133
(lp4134
g40
aVi:
p4135
ag3
asVcologne
p4136
(lp4137
g25
ag4
ag29
aVoU
p4138
ag22
asVgangster
p4139
(lp4140
g21
ag20
ag50
ag40
ag3
ag88
asVcollege
p4141
(lp4142
g25
ag164
ag29
aVI2
p4143
aVdZ
p4144
asVseal
p4145
(lp4146
g40
aVi:
p4147
ag29
asVskirped
p4148
(lp4149
g40
ag25
aV3:
p4150
ag42
ag3
asVsurgery
p4151
(lp4152
g40
aV3:
p4153
aVdZ
p4154
ag4
ag68
ag76
asVaroused
p4155
(lp4156
Va#
p4157
ag68
aVaU
p4158
ag7
ag5
asVcouldda
p4159
(lp4160
g25
ag141
ag5
ag4
asVwonder
p4161
(lp4162
g101
ag75
ag22
ag5
ag88
asVclips
p4163
(lp4164
g25
ag29
ag24
ag42
ag40
asVlufra
p4165
(lp4166
g29
ag75
ag36
ag68
ag4
asVfarmers
p4167
(lp4168
g36
aVA@
p4169
ag19
ag88
ag7
asVcrooked
p4170
(lp4171
g25
ag68
ag141
ag25
ag24
ag5
asVharvey
p4172
(lp4173
g49
aVA@
p4174
ag131
ag76
asVsenate
p4175
(lp4176
g40
ag23
ag22
ag4
ag3
asVbreathin
p4177
(lp4178
g74
ag68
ag23
ag103
ag24
ag22
asVmidstate
p4179
(lp4180
g19
ag24
ag5
ag40
ag3
aVeI
p4181
ag3
asVsheens
p4182
(lp4183
g116
aVi:
p4184
ag22
ag7
asVlabel
p4185
(lp4186
g29
aVeI
p4187
ag74
aV@L
p4188
asVweapons
p4189
(lp4190
g101
ag23
ag42
ag4
ag22
ag7
asVbehind
p4191
(lp4192
g74
aVI2
p4193
ag49
aVaI
p4194
ag22
ag5
asVcomplexion
p4195
(lp4196
g25
ag4
ag19
ag42
ag29
ag23
ag25
ag116
ag4
ag22
asVbetween
p4197
(lp4198
g74
aVI2
p4199
ag3
ag101
aVi:
p4200
ag22
asVdues
p4201
(lp4202
g5
ag32
aVu:
p4203
ag7
asVkillin
p4204
(lp4205
g25
ag24
ag29
aVI2
p4206
ag22
asVappealin
p4207
(lp4208
Va#
p4209
ag42
aVi:
p4210
ag29
ag24
ag22
asVchecks
p4211
(lp4212
VtS
p4213
ag23
ag25
ag40
asVunappealing
p4214
(lp4215
g75
ag22
aVa#
p4216
ag42
aVi:
p4217
ag29
ag24
ag50
asVcorridors
p4218
(lp4219
g25
ag164
ag68
ag24
ag5
aVo@
p4220
ag7
asVloofah
p4221
(lp4222
g29
aVu:
p4223
ag36
ag4
asVnotice
p4224
(lp4225
g22
aVoU
p4226
ag3
aVI2
p4227
ag40
asVyeahhhahhyeahhh
p4228
(lp4229
g32
ag23
ag49
ag49
aVA:
p4230
ag49
ag32
ag23
ag49
asVlettin
p4231
(lp4232
g29
ag23
ag3
ag24
ag22
asVkool
p4233
(lp4234
g25
aVu:
p4235
ag29
asVoriginated
p4236
(lp4237
g4
ag68
ag24
aVdZ
p4238
aVI2
p4239
ag22
aVeI
p4240
ag3
aVI2
p4241
ag5
asVscreen
p4242
(lp4243
g40
ag25
ag68
aVi:
p4244
ag22
asVbargainin
p4245
(lp4246
g74
aVA@
p4247
ag21
ag24
ag22
ag24
ag22
asVdomell
p4248
(lp4249
g5
aVoU
p4250
ag19
aV@L
p4251
asVmoany
p4252
(lp4253
g19
aVoU
p4254
ag22
ag76
asVdmin
p4255
(lp4256
g5
aVi:
p4257
ag19
ag24
ag22
asVinvite
p4258
(lp4259
g24
ag22
ag131
aVaI
p4260
ag3
asVhurts
p4261
(lp4262
g49
aV3:
p4263
ag3
ag40
asVspark
p4264
(lp4265
g40
ag42
aVA@
p4266
ag25
asVcome
p4267
(lp4268
g25
ag75
ag19
asVcoupons
p4269
(lp4270
g25
aVu:
p4271
ag42
ag164
ag22
ag7
asVbusting
p4272
(lp4273
g74
ag75
ag40
ag3
ag24
ag50
asVacquiring
p4274
(lp4275
Va#
p4276
ag25
ag101
aVaI@
p4277
ag68
ag24
ag50
asVmissions
p4278
(lp4279
g19
ag24
ag116
ag4
ag22
ag7
asVcakers
p4280
(lp4281
g25
aVeI
p4282
ag25
ag88
ag7
asVmany
p4283
(lp4284
g19
ag23
ag22
ag76
asVsleeps
p4285
(lp4286
g40
ag29
aVi:
p4287
ag42
ag40
asVmonetize
p4288
(lp4289
g19
ag164
ag22
aVI2
p4290
ag3
aVaI
p4291
ag7
asVquiet
p4292
(lp4293
g25
ag101
aVaI@
p4294
ag3
asVcontract
p4295
(lp4296
g25
ag164
ag22
ag3
ag68
ag20
ag25
ag3
asVtemper
p4297
(lp4298
g3
ag23
ag19
ag42
ag88
asVprobable
p4299
(lp4300
g42
ag68
ag164
ag74
ag4
ag74
aV@L
p4301
asVdracos
p4302
(lp4303
g5
ag68
aVeI
p4304
ag25
aVoU
p4305
ag7
asVgroundhog
p4306
(lp4307
g21
ag68
aVaU
p4308
ag22
ag5
ag49
ag164
ag21
asVcomes
p4309
(lp4310
g25
ag75
ag19
ag7
asVhandouts
p4311
(lp4312
g49
ag20
ag22
ag5
aVaU
p4313
ag3
ag40
asVsevenfigure
p4314
(lp4315
g40
ag23
ag131
ag4
ag22
ag36
ag24
ag21
ag88
asVfortyfour
p4316
(lp4317
g36
aVO@
p4318
ag3
ag24
ag36
aVo@
p4319
asVstream
p4320
(lp4321
g40
ag3
ag68
aVi:
p4322
ag19
asVbricks
p4323
(lp4324
g74
ag68
ag24
ag25
ag40
asVpot
p4325
(lp4326
g42
ag164
ag3
asVjeans
p4327
(lp4328
VdZ
p4329
aVi:
p4330
ag22
ag7
asVjuvenile
p4331
(lp4332
VdZ
p4333
aVu:
p4334
ag131
ag4
ag22
aVaI
p4335
ag29
asVpop
p4336
(lp4337
g42
ag164
ag42
asVslain
p4338
(lp4339
g40
ag29
aVeI
p4340
ag22
asVgrants
p4341
(lp4342
g21
ag68
aVaa
p4343
ag22
ag3
ag40
asVpolo
p4344
(lp4345
g42
aVoU
p4346
ag29
aVoU
p4347
asVcokes
p4348
(lp4349
g25
aVoU
p4350
ag25
ag40
asVboat
p4351
(lp4352
g74
aVoU
p4353
ag3
asVnose
p4354
(lp4355
g22
aVoU
p4356
ag7
asVturkey
p4357
(lp4358
g3
aV3:
p4359
ag25
ag76
asVbetter
p4360
(lp4361
g74
ag23
ag3
ag88
asVsess
p4362
(lp4363
g40
ag23
ag40
asVunderworld
p4364
(lp4365
g75
ag22
ag5
ag88
ag101
aV3:
p4366
ag29
ag5
asVbooms
p4367
(lp4368
g74
aVu:
p4369
ag19
ag7
asVporsche
p4370
(lp4371
g42
aVo@
p4372
ag116
asVcartiers
p4373
(lp4374
g25
aVA@
p4375
ag3
aVi@3
p4376
ag7
asVwess
p4377
(lp4378
g101
ag23
ag40
asVcoupe
p4379
(lp4380
g25
aVu:
p4381
ag42
asVshowin
p4382
(lp4383
g116
aVoU
p4384
ag24
ag22
asVhobo
p4385
(lp4386
g49
aVoU
p4387
ag74
aVoU
p4388
asVcords
p4389
(lp4390
g25
aVo@
p4391
ag5
ag7
asVmary
p4392
(lp4393
g19
aVe@
p4394
ag68
ag76
asVdirection
p4395
(lp4396
g5
aVaI
p4397
ag68
ag23
ag25
ag116
ag4
ag22
asVshopping
p4398
(lp4399
g116
ag164
ag42
ag24
ag50
asVgraveyard
p4400
(lp4401
g21
ag68
aVeI
p4402
ag131
ag32
aVA@
p4403
ag5
asVoffered
p4404
(lp4405
g164
ag36
ag88
ag5
asVandrew
p4406
(lp4407
g20
ag22
ag5
ag68
aVu:
p4408
asVmechanicals
p4409
(lp4410
g19
aVI2
p4411
ag25
ag20
ag22
ag24
ag25
aV@L
p4412
ag7
asVphotos
p4413
(lp4414
g36
aVoU
p4415
ag3
aVoU
p4416
ag7
asVwake
p4417
(lp4418
g101
aVeI
p4419
ag25
asVcareful
p4420
(lp4421
g25
aVe@
p4422
ag36
aV@L
p4423
asVspirit
p4424
(lp4425
g40
ag42
ag24
ag68
ag24
ag3
asVthose
p4426
(lp4427
g174
aVoU
p4428
ag7
asVbouncin
p4429
(lp4430
g74
aVaU
p4431
ag22
ag40
ag24
ag22
asVsound
p4432
(lp4433
g40
aVaU
p4434
ag22
ag5
asVmyself
p4435
(lp4436
g19
aVaI
p4437
ag40
ag23
ag29
ag36
asVfiends
p4438
(lp4439
g36
aVi:
p4440
ag22
ag5
ag7
asVstacked
p4441
(lp4442
g40
ag3
ag20
ag25
ag3
asVthese
p4443
(lp4444
g174
aVi:
p4445
ag7
asVplush
p4446
(lp4447
g42
ag29
ag75
ag116
asVmona
p4448
(lp4449
g19
aVoU
p4450
ag22
ag4
asVdumdums
p4451
(lp4452
g5
ag75
ag19
ag5
ag4
ag19
ag7
asVcash
p4453
(lp4454
g25
ag20
ag116
asVtrick
p4455
(lp4456
g3
ag68
ag24
ag25
asVstacker
p4457
(lp4458
g40
ag3
ag20
ag25
ag88
asVratchet
p4459
(lp4460
g68
ag20
aVtS
p4461
aVI2
p4462
ag3
asVsituation
p4463
(lp4464
g40
ag24
aVtS
p4465
aVu:
p4466
aVeI
p4467
ag116
ag4
ag22
asVabductee
p4468
(lp4469
Va#
p4470
ag74
ag5
ag75
ag25
ag3
aVi:
p4471
asVcock
p4472
(lp4473
g25
ag164
ag25
asVslippers
p4474
(lp4475
g40
ag29
ag24
ag42
ag88
ag7
asVpushin
p4476
(lp4477
g42
ag141
ag116
ag24
ag22
asVive
p4478
(lp4479
VaI
p4480
ag131
asVcigs
p4481
(lp4482
g40
ag24
ag21
ag7
asVpotholes
p4483
(lp4484
g42
ag164
ag3
ag49
aVoU
p4485
ag29
ag7
asVengaged
p4486
(lp4487
g23
ag50
ag21
aVeI
p4488
aVdZ
p4489
ag5
asVattachin
p4490
(lp4491
Va#
p4492
ag3
ag20
aVtS
p4493
ag24
ag22
asVdedicate
p4494
(lp4495
g5
ag23
ag5
aVI2
p4496
ag25
aVeI
p4497
ag3
asVmiddle
p4498
(lp4499
g19
ag24
ag5
aV@L
p4500
asVgood
p4501
(lp4502
g21
ag141
ag5
asVblam
p4503
(lp4504
g74
ag29
ag20
ag19
asVmillionaire
p4505
(lp4506
g19
ag24
ag29
aVi@
p4507
ag22
aVe@
p4508
asVbaths
p4509
(lp4510
g74
aVaa
p4511
ag103
ag40
asVheels
p4512
(lp4513
g49
aVi:
p4514
ag29
ag7
asVsomebody
p4515
(lp4516
g40
ag75
ag19
ag74
ag164
ag5
ag76
asVflipped
p4517
(lp4518
g36
ag29
ag24
ag42
ag3
asVfame
p4519
(lp4520
g36
aVeI
p4521
ag19
asVpap
p4522
(lp4523
g42
ag20
ag42
asVhelmet
p4524
(lp4525
g49
ag23
ag29
ag19
aVI2
p4526
ag3
asVdifferent
p4527
(lp4528
g5
ag24
ag36
ag68
ag4
ag22
ag3
asVsippin
p4529
(lp4530
g40
ag24
ag42
ag24
ag22
asVsellin
p4531
(lp4532
g40
ag23
ag29
aVI2
p4533
ag22
asVinquire
p4534
(lp4535
g24
ag50
ag25
ag101
aVaI@
p4536
asVpay
p4537
(lp4538
g42
aVeI
p4539
asVthinkin
p4540
(lp4541
g103
ag24
ag50
ag25
ag24
ag22
asVbowl
p4542
(lp4543
g74
aVoU
p4544
ag29
asVsame
p4545
(lp4546
g40
aVeI
p4547
ag19
asVmarys
p4548
(lp4549
g19
aVe@
p4550
ag68
ag76
ag7
asVcupola
p4551
(lp4552
g25
ag32
aVu:
p4553
ag42
aVoU
p4554
ag29
ag4
asVpad
p4555
(lp4556
g42
ag20
ag5
asVmotherfuckin
p4557
(lp4558
g19
ag75
ag174
ag4
ag36
ag75
ag25
ag24
ag22
asVyeahhh
p4559
(lp4560
g32
ag23
ag49
asVfigures
p4561
(lp4562
g36
ag24
ag21
ag88
ag7
asVstripper
p4563
(lp4564
g40
ag3
ag68
ag24
ag42
ag88
asVfofo
p4565
(lp4566
g36
aVoU
p4567
ag36
aVoU
p4568
asVevents
p4569
(lp4570
VI2
p4571
ag131
ag23
ag22
ag3
ag40
asVstatus
p4572
(lp4573
g40
ag3
aVeI
p4574
ag3
ag4
ag40
asVoil
p4575
(lp4576
VOI
p4577
ag29
asVdriver
p4578
(lp4579
g5
ag68
aVaI
p4580
ag131
ag88
asVrequire
p4581
(lp4582
g68
aVI2
p4583
ag25
ag101
aVaI@
p4584
asVweed
p4585
(lp4586
g101
aVi:
p4587
ag5
asVdriven
p4588
(lp4589
g5
ag68
ag24
ag131
ag4
ag22
asVbulletproof
p4590
(lp4591
g74
ag141
ag29
aVI2
p4592
ag3
ag42
ag68
aVu:
p4593
ag36
asVrunning
p4594
(lp4595
g68
ag75
ag22
ag24
ag50
asVfruit
p4596
(lp4597
g36
ag68
aVu:
p4598
ag3
asVbarber
p4599
(lp4600
g74
aVA@
p4601
ag74
ag88
asVuhh
p4602
(lp4603
Vu:
p4604
asVmuffler
p4605
(lp4606
g19
ag75
ag36
ag29
ag88
asVchanging
p4607
(lp4608
VtS
p4609
aVeI
p4610
ag22
aVdZ
p4611
ag24
ag50
asVdisown
p4612
(lp4613
g5
aVI2
p4614
ag40
aVoU
p4615
ag22
asVweave
p4616
(lp4617
g101
aVi:
p4618
ag131
asVsevers
p4619
(lp4620
g40
ag23
ag131
ag88
ag7
asVfloor
p4621
(lp4622
g36
ag29
aVo@
p4623
asVnothin
p4624
(lp4625
g22
ag75
ag103
ag24
ag22
asVamounts
p4626
(lp4627
Va#
p4628
ag19
aVaU
p4629
ag22
ag3
ag40
asVwithout
p4630
(lp4631
g101
ag24
ag174
aVaU
p4632
ag3
asVbottle
p4633
(lp4634
g74
ag164
ag3
aV@L
p4635
asVvomit
p4636
(lp4637
g131
ag164
ag19
ag24
ag3
asVflocka
p4638
(lp4639
g36
ag29
ag164
ag25
ag4
asVtactics
p4640
(lp4641
g3
ag20
ag25
ag3
ag24
ag25
ag40
asVbodies
p4642
(lp4643
g74
ag164
ag5
ag76
ag7
asVcharged
p4644
(lp4645
VtS
p4646
aVA@
p4647
aVdZ
p4648
ag5
asVgates
p4649
(lp4650
g21
aVeI
p4651
ag3
ag40
asVaborted
p4652
(lp4653
Va#
p4654
ag74
aVO@
p4655
ag3
aVI2
p4656
ag5
asVya
p4657
(lp4658
g32
aVa#
p4659
asVmoney
p4660
(lp4661
g19
ag75
ag22
ag76
asVrest
p4662
(lp4663
g68
ag23
ag40
ag3
asVlavish
p4664
(lp4665
g29
ag20
ag131
ag24
ag116
asVgriddle
p4666
(lp4667
g21
ag68
ag24
ag5
aV@L
p4668
asVkill
p4669
(lp4670
g25
ag24
ag29
asVwifey
p4671
(lp4672
g101
aVaI
p4673
ag36
ag76
asVounces
p4674
(lp4675
VaU
p4676
ag22
ag40
aVI2
p4677
ag7
asVtouch
p4678
(lp4679
g3
ag75
aVtS
p4680
asVflavor
p4681
(lp4682
g36
ag29
aVeI
p4683
ag131
ag88
asVparlay
p4684
(lp4685
g42
aVA@
p4686
ag29
aVeI
p4687
asVsatin
p4688
(lp4689
g40
ag20
ag3
ag24
ag22
asVhalfway
p4690
(lp4691
g49
aVA:
p4692
ag36
ag101
aVeI
p4693
asVblow
p4694
(lp4695
g74
ag29
aVoU
p4696
asVrover
p4697
(lp4698
g68
aVoU
p4699
ag131
ag88
asVtonys
p4700
(lp4701
g3
aVoU
p4702
ag22
ag76
ag7
asVdeath
p4703
(lp4704
g5
ag23
ag103
asVdipped
p4705
(lp4706
g5
ag24
ag42
ag3
asVkirk
p4707
(lp4708
g25
aV3:
p4709
ag25
asVrose
p4710
(lp4711
g68
aVoU
p4712
ag7
asVseems
p4713
(lp4714
g40
aVi:
p4715
ag19
ag7
asVexcept
p4716
(lp4717
g23
ag25
ag40
ag23
ag42
ag3
asVsmugglers
p4718
(lp4719
g40
ag19
ag75
ag21
ag29
ag88
ag7
asVsportin
p4720
(lp4721
g40
ag42
aVo@
p4722
ag3
ag24
ag22
asVcolor
p4723
(lp4724
g25
ag75
ag29
ag88
asVlets
p4725
(lp4726
g29
ag23
ag3
ag40
asVpile
p4727
(lp4728
g42
aVaI
p4729
ag29
asVbank
p4730
(lp4731
g74
ag20
ag50
ag25
asVsamples
p4732
(lp4733
g40
aVaa
p4734
ag19
ag42
aV@L
p4735
ag7
asVaiyyo
p4736
(lp4737
VeI
p4738
ag32
ag32
aVoU
p4739
asVstruck
p4740
(lp4741
g40
ag3
ag68
ag75
ag25
asVbread
p4742
(lp4743
g74
ag68
ag23
ag5
asVdisrupt
p4744
(lp4745
g5
aVI2
p4746
ag40
ag68
ag75
ag42
ag3
asVpill
p4747
(lp4748
g42
ag24
ag29
asVross
p4749
(lp4750
g68
ag164
ag40
asVreal
p4751
(lp4752
g68
aVi@
p4753
ag29
asVjake
p4754
(lp4755
VdZ
p4756
aVeI
p4757
ag25
asVzion
p4758
(lp4759
g7
aVaI@
p4760
ag22
asVschwarzenegger
p4761
(lp4762
g116
ag101
aVO@
p4763
ag7
ag4
ag22
ag23
ag21
ag88
asVkills
p4764
(lp4765
g25
ag24
ag29
ag7
asVeasily
p4766
(lp4767
Vi:
p4768
ag7
ag76
ag29
ag76
asVread
p4769
(lp4770
g68
aVi:
p4771
ag5
asVdocks
p4772
(lp4773
g5
ag164
ag25
ag40
asVjustturn
p4774
(lp4775
VdZ
p4776
ag75
ag40
ag3
ag4
ag68
ag12
ag4
ag22
asVsums
p4777
(lp4778
g40
ag75
ag19
ag7
asVfridge
p4779
(lp4780
g36
ag68
ag24
aVdZ
p4781
asVgonna
p4782
(lp4783
g21
ag4
ag22
ag4
asVearly
p4784
(lp4785
V3:
p4786
ag29
ag24
asVhopin
p4787
(lp4788
g49
ag164
ag42
ag24
ag22
asVtraffic
p4789
(lp4790
g3
ag68
ag20
ag36
ag24
ag25
asVnappy
p4791
(lp4792
g22
ag20
ag42
ag76
asVmom
p4793
(lp4794
g19
ag164
ag19
asVworld
p4795
(lp4796
g101
aV3:
p4797
ag29
ag5
asVlady
p4798
(lp4799
g29
aVeI
p4800
ag5
ag76
asVgrim
p4801
(lp4802
g21
ag68
ag24
ag19
asVrear
p4803
(lp4804
g68
aVi@3
p4805
asVdiaper
p4806
(lp4807
g5
aVaI
p4808
ag42
ag88
asVwhatchu
p4809
(lp4810
g101
ag164
ag3
aVtS
p4811
aVu:
p4812
asVyellas
p4813
(lp4814
g32
ag23
ag29
ag4
ag7
asVintel
p4815
(lp4816
g24
ag22
ag3
ag23
ag29
asVstranger
p4817
(lp4818
g40
ag3
ag68
aVeI
p4819
ag22
aVdZ
p4820
ag88
asVpregnant
p4821
(lp4822
g42
ag68
ag23
ag21
ag22
ag4
ag22
ag3
asVexploit
p4823
(lp4824
g23
ag25
ag40
ag42
ag29
aVOI
p4825
ag3
asVcfour
p4826
(lp4827
g40
aVi:
p4828
ag36
aVo@
p4829
asVsanity
p4830
(lp4831
g40
ag20
ag22
aVI2
p4832
ag3
ag76
asVchamber
p4833
(lp4834
VtS
p4835
aVeI
p4836
ag19
ag74
ag88
asVgimme
p4837
(lp4838
g21
ag24
ag19
ag76
asVeither
p4839
(lp4840
VaI
p4841
ag174
ag88
asVrobbery
p4842
(lp4843
g68
ag164
ag74
ag4
ag68
ag76
asVoffenders
p4844
(lp4845
g4
ag36
ag23
ag22
ag5
ag88
ag7
asVclap
p4846
(lp4847
g25
ag29
ag20
ag42
asVtwelve
p4848
(lp4849
g3
ag101
ag23
ag29
ag131
asVsneaker
p4850
(lp4851
g40
ag22
aVi:
p4852
ag25
ag88
asVjewellery
p4853
(lp4854
VdZ
p4855
aVu:
p4856
ag4
ag29
ag68
ag76
asVexposed
p4857
(lp4858
g23
ag25
ag40
ag42
aVoU
p4859
ag7
ag5
asVconfused
p4860
(lp4861
g25
ag4
ag22
ag36
ag32
aVu:
p4862
ag7
ag5
asVcompetition
p4863
(lp4864
g25
ag164
ag19
ag42
ag4
ag3
ag24
ag116
ag4
ag22
asVtarot
p4865
(lp4866
g3
ag20
ag68
aVoU
p4867
asVbutt
p4868
(lp4869
g74
ag75
ag3
asVtable
p4870
(lp4871
g3
aVeI
p4872
ag74
aV@L
p4873
asVplayin
p4874
(lp4875
g42
ag29
aVeI
p4876
ag24
ag22
asVdumps
p4877
(lp4878
g5
ag75
ag19
ag42
ag40
asVcaribbean
p4879
(lp4880
g25
ag20
ag68
ag4
ag74
aVi@
p4881
ag22
asVoverstay
p4882
(lp4883
VoU
p4884
ag131
ag88
ag40
ag3
aVeI
p4885
asVscuffed
p4886
(lp4887
g40
ag25
ag75
ag36
ag3
asVslick
p4888
(lp4889
g40
ag29
ag24
ag25
asVlegal
p4890
(lp4891
g29
aVi:
p4892
ag21
aV@L
p4893
asVthroat
p4894
(lp4895
g103
ag68
aVoU
p4896
ag3
asVbuddha
p4897
(lp4898
g74
ag141
ag5
ag4
asVdies
p4899
(lp4900
g5
aVaI
p4901
ag7
asVwillie
p4902
(lp4903
g101
ag24
ag29
ag76
asVknife
p4904
(lp4905
g22
aVaI
p4906
ag36
asVhustle
p4907
(lp4908
g49
ag75
ag40
aV@L
p4909
asVfelt
p4910
(lp4911
g36
ag23
ag29
ag3
asVbusiness
p4912
(lp4913
g74
ag24
ag7
ag22
ag4
ag40
asVfacetalk
p4914
(lp4915
g36
aVeI
p4916
ag40
ag3
aVO:
p4917
ag25
asVnails
p4918
(lp4919
g22
aVeI
p4920
ag29
ag7
asVbroken
p4921
(lp4922
g74
ag68
aVoU
p4923
ag25
ag4
ag22
asVmarchin
p4924
(lp4925
g19
aVA@
p4926
aVtS
p4927
ag24
ag22
asVprepared
p4928
(lp4929
g42
ag68
ag24
ag42
aVe@
p4930
ag5
asVthrow
p4931
(lp4932
g103
ag68
aVoU
p4933
asVon
p4934
(lp4935
g164
ag22
asVstone
p4936
(lp4937
g40
ag3
aVoU
p4938
ag22
asVace
p4939
(lp4940
VeI
p4941
ag40
asVoh
p4942
(lp4943
VoU
p4944
asVjeep
p4945
(lp4946
VdZ
p4947
aVi:
p4948
ag42
asVof
p4949
(lp4950
g164
ag131
asVoe
p4951
(lp4952
VoU
p4953
asVviolence
p4954
(lp4955
g131
aVaI@
p4956
ag29
ag4
ag22
ag40
asVfavorite
p4957
(lp4958
g36
aVeI
p4959
ag131
ag88
ag68
aVI2
p4960
ag3
asVcrocs
p4961
(lp4962
g25
ag68
ag164
ag25
ag40
asVtumor
p4963
(lp4964
g3
ag32
aVu:
p4965
ag19
ag88
asVexquisite
p4966
(lp4967
g23
ag25
ag40
ag25
ag101
ag24
ag40
ag24
ag3
asVpockets
p4968
(lp4969
g42
ag164
ag25
aVI2
p4970
ag3
ag40
asVyouve
p4971
(lp4972
g32
aVu:
p4973
ag131
asVmixed
p4974
(lp4975
g19
ag24
ag25
ag40
ag3
asVdesamble
p4976
(lp4977
g5
aVI2
p4978
ag40
ag20
ag19
ag74
aV@L
p4979
asVmarriott
p4980
(lp4981
g19
ag20
ag68
ag24
ag12
ag4
ag3
asVluck
p4982
(lp4983
g29
ag75
ag25
asVos
p4984
(lp4985
VoU
p4986
ag23
ag40
asVor
p4987
(lp4988
VO@
p4989
asVroad
p4990
(lp4991
g68
aVoU
p4992
ag5
asVracehorses
p4993
(lp4994
g68
aVeI
p4995
ag40
ag49
aVO@
p4996
ag40
aVI2
p4997
ag7
asVladies
p4998
(lp4999
g29
aVeI
p5000
ag5
ag76
ag7
asVlands
p5001
(lp5002
g29
ag20
ag22
ag5
ag7
asVcrimey
p5003
(lp5004
g25
ag68
aVaI
p5005
ag19
ag76
asVtwopac
p5006
(lp5007
g3
aVu:
p5008
ag42
ag20
ag25
asV\u000a
p5009
(lp5010
S'\n'
p5011
asVhollowtips
p5012
(lp5013
g49
ag164
ag29
aVoU
p5014
ag3
ag24
ag42
ag40
asVevilly
p5015
(lp5016
Vi:
p5017
ag131
aV@L
p5018
ag76
asVaccounts
p5019
(lp5020
Va#
p5021
ag25
aVaU
p5022
ag22
ag3
ag40
asVangel
p5023
(lp5024
VeI
p5025
ag22
aVdZ
p5026
aV@L
p5027
asVheated
p5028
(lp5029
g49
aVi:
p5030
ag3
aVI2
p5031
ag5
asVoperator
p5032
(lp5033
g164
ag42
ag88
ag68
aVeI
p5034
ag3
ag88
asVpivot
p5035
(lp5036
g42
ag24
ag131
ag4
ag3
asVblesser
p5037
(lp5038
g74
ag29
ag23
ag40
ag88
asVyour
p5039
(lp5040
g32
aVO@
p5041
asVloc
p5042
(lp5043
g29
ag164
ag25
asVfill
p5044
(lp5045
g36
ag24
ag29
asVweight
p5046
(lp5047
g101
aVeI
p5048
ag3
asVher
p5049
(lp5050
g49
aV3:
p5051
asVhes
p5052
(lp5053
g49
aVi:
p5054
ag7
asVsprees
p5055
(lp5056
g40
ag42
ag68
aVi:
p5057
ag7
asVgleam
p5058
(lp5059
g21
ag29
aVi:
p5060
ag19
asVstrictly
p5061
(lp5062
g40
ag3
ag68
ag24
ag25
ag3
ag29
ag76
asVthere
p5063
(lp5064
g174
aVe@
p5065
asVhey
p5066
(lp5067
g49
aVeI
p5068
asVstart
p5069
(lp5070
g40
ag3
aVA@
p5071
ag3
asVhandcuffed
p5072
(lp5073
g49
ag20
ag22
ag5
ag25
ag75
ag36
ag3
asVcats
p5074
(lp5075
g25
ag20
ag3
ag40
asVlullabies
p5076
(lp5077
g29
ag75
ag29
ag4
ag74
aVaI
p5078
ag7
asVlow
p5079
(lp5080
g29
aVoU
p5081
asVlot
p5082
(lp5083
g29
ag164
ag3
asVhouse
p5084
(lp5085
g49
aVaU
p5086
ag40
asVhem
p5087
(lp5088
g49
ag23
ag19
asVhen
p5089
(lp5090
g49
ag23
ag22
asVbubble
p5091
(lp5092
g74
ag75
ag74
aV@L
p5093
asVmahogany
p5094
(lp5095
g19
ag4
ag49
ag164
ag21
ag4
ag22
ag76
asVimmaculate
p5096
(lp5097
g24
ag19
ag20
ag25
ag32
ag141
ag29
ag4
ag3
asVyah
p5098
(lp5099
g32
aVA:
p5100
asVhookers
p5101
(lp5102
g49
ag141
ag25
ag88
ag7
asVbulletholes
p5103
(lp5104
g74
ag141
ag29
aVI2
p5105
ag3
ag49
aVoU
p5106
ag29
ag7
asVenough
p5107
(lp5108
VI2
p5109
ag22
ag75
ag36
asVmics
p5110
(lp5111
g19
aVaI
p5112
ag25
ag40
asVlane
p5113
(lp5114
g29
aVeI
p5115
ag22
asVgunners
p5116
(lp5117
g21
ag75
ag22
ag88
ag7
asVbeginners
p5118
(lp5119
g74
ag24
ag21
ag24
ag22
ag88
ag7
asVforeheads
p5120
(lp5121
g36
aVO@
p5122
ag49
ag23
ag5
ag7
asVcatchin
p5123
(lp5124
g25
ag20
aVtS
p5125
ag24
ag22
asVbrain
p5126
(lp5127
g74
ag68
aVeI
p5128
ag22
asVmice
p5129
(lp5130
g19
aVaI
p5131
ag40
asVtrying
p5132
(lp5133
g3
ag68
aVaI
p5134
ag24
ag50
asVwith
p5135
(lp5136
g101
ag24
ag174
asVyayo
p5137
(lp5138
g32
aVeI
p5139
aVoU
p5140
asVhighness
p5141
(lp5142
g49
aVaI
p5143
ag22
ag4
ag40
asVuh
p5144
(lp5145
g75
asVpull
p5146
(lp5147
g42
ag141
ag29
asVstickin
p5148
(lp5149
g40
ag3
ag24
ag25
ag24
ag22
asVrepeatin
p5150
(lp5151
g68
aVI2
p5152
ag42
aVi:
p5153
ag3
ag24
ag22
asVarranged
p5154
(lp5155
Va#
p5156
ag68
aVeI
p5157
ag22
aVdZ
p5158
ag5
asVgainin
p5159
(lp5160
g21
aVeI
p5161
ag22
ag24
ag22
asVmonopoly
p5162
(lp5163
g19
ag4
ag22
ag164
ag42
ag4
ag29
ag76
asVtellin
p5164
(lp5165
g3
ag23
ag29
aVI2
p5166
ag22
asVjamaican
p5167
(lp5168
VdZ
p5169
aVa#
p5170
ag19
aVeI
p5171
ag25
ag4
ag22
asVdirty
p5172
(lp5173
g5
aV3:
p5174
ag3
ag76
asVstressin
p5175
(lp5176
g40
ag3
ag68
ag23
ag40
ag24
ag22
asVtrips
p5177
(lp5178
g3
ag68
ag24
ag42
ag40
asVmisery
p5179
(lp5180
g19
ag24
ag7
ag4
ag68
ag76
asVgone
p5181
(lp5182
g21
ag164
ag22
asVdangerous
p5183
(lp5184
g5
aVeI
p5185
ag22
aVdZ
p5186
ag4
ag68
ag4
ag40
asVtaste
p5187
(lp5188
g3
aVeI
p5189
ag40
ag3
asVcertain
p5190
(lp5191
g40
aV3:
p5192
ag3
ag4
ag22
asVarabs
p5193
(lp5194
g20
ag68
ag4
ag74
ag7
asVmoved
p5195
(lp5196
g19
aVu:
p5197
ag131
ag5
asVsales
p5198
(lp5199
g40
aVeI
p5200
ag29
ag7
asVdeep
p5201
(lp5202
g5
aVi:
p5203
ag42
asVan
p5204
(lp5205
g20
ag22
asVexamine
p5206
(lp5207
g23
ag21
ag7
ag20
ag19
aVI2
p5208
ag22
asVglock
p5209
(lp5210
g21
ag29
ag164
ag25
asVat
p5211
(lp5212
g20
ag3
asVfile
p5213
(lp5214
g36
aVaI
p5215
ag29
asVwalks
p5216
(lp5217
g101
aVO:
p5218
ag25
ag40
asVay
p5219
(lp5220
VaI
p5221
asVwatched
p5222
(lp5223
g101
ag164
aVtS
p5224
ag3
asVdeed
p5225
(lp5226
g5
aVi:
p5227
ag5
asVmoves
p5228
(lp5229
g19
aVu:
p5230
ag131
ag7
asVoperation
p5231
(lp5232
g164
ag42
ag88
ag68
aVeI
p5233
ag116
ag4
ag22
asVcream
p5234
(lp5235
g25
ag68
aVi:
p5236
ag19
asVagain
p5237
(lp5238
Va#
p5239
ag21
ag23
ag22
asVyoga
p5240
(lp5241
g32
aVoU
p5242
ag21
ag4
asVantenna
p5243
(lp5244
g20
ag22
ag3
ag23
ag22
ag4
asVdeserve
p5245
(lp5246
g5
aVI2
p5247
ag7
aV3:
p5248
ag131
asVdrivers
p5249
(lp5250
g5
ag68
aVaI
p5251
ag131
ag88
ag7
asVgnine
p5252
(lp5253
g22
aVaI
p5254
ag22
asVblinded
p5255
(lp5256
g74
ag29
aVaI
p5257
ag22
ag5
aVI2
p5258
ag5
asVrubber
p5259
(lp5260
g68
ag75
ag74
ag88
asVtight
p5261
(lp5262
g3
aVaI
p5263
ag3
asVlifestyle
p5264
(lp5265
g29
aVaI
p5266
ag36
ag40
ag3
aVaI
p5267
ag29
asVharveys
p5268
(lp5269
g49
aVA@
p5270
ag131
ag76
ag7
asVyou
p5271
(lp5272
g32
aVu:
p5273
asVharp
p5274
(lp5275
g49
aVA@
p5276
ag42
asVfours
p5277
(lp5278
g36
aVo@
p5279
ag7
asValhamdulilah
p5280
(lp5281
Va#
p5282
ag29
ag49
aVaa
p5283
ag19
ag5
ag32
ag141
ag29
aVaI
p5284
ag29
ag4
asVpoor
p5285
(lp5286
g42
aVU@
p5287
asVsuites
p5288
(lp5289
g40
ag101
aVi:
p5290
ag3
ag40
asVseparate
p5291
(lp5292
g40
ag23
ag42
ag4
ag12
ag68
ag4
ag3
asVstudents
p5293
(lp5294
g40
ag3
ag32
aVu:
p5295
ag5
ag4
ag22
ag3
ag40
asVgunplay
p5296
(lp5297
g21
ag75
ag22
ag42
ag29
aVeI
p5298
asg19
(lp5299
g23
ag19
asVkeepin
p5300
(lp5301
g25
aVi:
p5302
ag42
ag24
ag22
asVimportant
p5303
(lp5304
g24
ag19
ag42
aVo@
p5305
ag3
ag4
ag22
ag3
asVbullets
p5306
(lp5307
g74
ag141
ag29
ag24
ag3
ag40
asVtackle
p5308
(lp5309
g3
ag20
ag25
aV@L
p5310
asVvelvet
p5311
(lp5312
g131
ag23
ag29
ag131
aVI2
p5313
ag3
asVstocks
p5314
(lp5315
g40
ag3
ag164
ag25
ag40
asVslang
p5316
(lp5317
g40
ag29
ag20
ag50
asVjuniors
p5318
(lp5319
VdZ
p5320
aVu:
p5321
ag22
ag32
ag88
ag7
asVbuilding
p5322
(lp5323
g74
ag24
ag29
ag5
ag24
ag50
asVwife
p5324
(lp5325
g101
aVaI
p5326
ag36
asVtricks
p5327
(lp5328
g3
ag68
ag24
ag25
ag40
asVflyin
p5329
(lp5330
g36
ag29
aVaI
p5331
ag24
ag22
asVsmooch
p5332
(lp5333
g40
ag19
aVu:
p5334
aVtS
p5335
asVkilogram
p5336
(lp5337
g25
ag24
ag29
ag4
ag21
ag68
ag20
ag19
asVhaving
p5338
(lp5339
g49
ag20
ag131
ag24
ag50
asVcurvy
p5340
(lp5341
g25
aV3:
p5342
ag131
ag76
asVboosters
p5343
(lp5344
g74
aVu:
p5345
ag40
ag3
ag88
ag7
asVthreethousand
p5346
(lp5347
g103
ag68
aVi:
p5348
ag103
aVaU
p5349
ag7
ag4
ag22
ag5
asVthreeleaf
p5350
(lp5351
g103
ag68
aVi:
p5352
ag29
aVi:
p5353
ag36
asVtheyll
p5354
(lp5355
g103
aVeI
p5356
ag29
asVstarting
p5357
(lp5358
g40
ag3
aVA@
p5359
ag3
ag24
ag50
asVrepresent
p5360
(lp5361
g68
ag23
ag42
ag68
aVI2
p5362
ag7
ag23
ag22
ag3
asVmonte
p5363
(lp5364
g19
ag164
ag22
ag3
ag76
asVdiss
p5365
(lp5366
g5
ag24
ag40
asVforget
p5367
(lp5368
g36
ag88
ag21
ag23
ag3
asVsuburban
p5369
(lp5370
g40
ag4
ag74
aV3:
p5371
ag74
ag4
ag22
asVlack
p5372
(lp5373
g29
ag20
ag25
asVdollar
p5374
(lp5375
g5
ag164
ag29
ag88
asVabit
p5376
(lp5377
g20
ag74
ag24
ag3
asVasylum
p5378
(lp5379
Va#
p5380
ag40
aVaI
p5381
ag29
ag4
ag19
asVslung
p5382
(lp5383
g40
ag29
ag75
ag50
asVfollow
p5384
(lp5385
g36
ag164
ag29
aVoU
p5386
asVcarpet
p5387
(lp5388
g25
aVA@
p5389
ag42
aVI2
p5390
ag3
asVsynthetic
p5391
(lp5392
g40
ag24
ag22
ag103
ag23
ag3
ag24
ag25
asVbookers
p5393
(lp5394
g74
ag141
ag25
ag88
ag7
asVchattin
p5395
(lp5396
VtS
p5397
ag20
ag3
ag24
ag22
asVron
p5398
(lp5399
g68
ag164
ag22
asVnines
p5400
(lp5401
g22
aVaI
p5402
ag22
ag7
asVimma
p5403
(lp5404
g24
ag19
ag20
asVbaddest
p5405
(lp5406
g74
ag20
ag5
aVI2
p5407
ag40
ag3
asVwassup
p5408
(lp5409
g101
ag4
ag116
ag75
ag42
asVmisses
p5410
(lp5411
g19
ag24
ag40
aVI2
p5412
ag7
asVgary
p5413
(lp5414
g21
ag20
ag68
ag76
asVto
p5415
(lp5416
g3
aVu:
p5417
asVtail
p5418
(lp5419
g3
aVeI
p5420
ag29
asValvarez
p5421
(lp5422
g20
ag29
ag131
ag4
ag68
ag23
ag7
asVpreserved
p5423
(lp5424
g42
ag68
ag24
ag7
aV3:
p5425
ag131
ag5
asVdressing
p5426
(lp5427
g5
ag68
ag23
ag40
ag24
ag50
asVcrackajack
p5428
(lp5429
g25
ag68
ag20
ag25
aVa#
p5430
aVdZ
p5431
ag20
ag25
asVta
p5432
(lp5433
g3
aVA:
p5434
asVrunnin
p5435
(lp5436
g68
ag75
ag22
ag24
ag22
asVmornin
p5437
(lp5438
g19
aVO@
p5439
ag22
ag24
ag22
asVsong
p5440
(lp5441
g40
ag164
ag50
asVvery
p5442
(lp5443
g131
ag23
ag68
ag76
asVfat
p5444
(lp5445
g36
ag20
ag3
asVtrife
p5446
(lp5447
g3
ag68
aVaI
p5448
ag36
asVpuzzles
p5449
(lp5450
g42
ag75
ag7
aV@L
p5451
ag7
asVinnout
p5452
(lp5453
g24
ag22
ag22
aVaU
p5454
ag3
asVsons
p5455
(lp5456
g40
ag75
ag22
ag7
asVfan
p5457
(lp5458
g36
ag20
ag22
asVdecide
p5459
(lp5460
g5
aVI2
p5461
ag40
aVaI
p5462
ag5
asVfall
p5463
(lp5464
g36
aVO:
p5465
ag29
asVsony
p5466
(lp5467
g40
aVoU
p5468
ag22
ag76
asVchargin
p5469
(lp5470
VtS
p5471
aVA@
p5472
aVdZ
p5473
ag24
ag22
asVabandoned
p5474
(lp5475
Va#
p5476
ag74
ag20
ag22
ag5
ag4
ag22
ag5
asVtrippin
p5477
(lp5478
g3
ag68
ag24
ag42
ag24
ag22
asVheaven
p5479
(lp5480
g49
ag23
ag131
ag4
ag22
asVoneal
p5481
(lp5482
g101
ag164
ag22
aV@L
p5483
asVlouis
p5484
(lp5485
g29
aVu:
p5486
ag76
asVheist
p5487
(lp5488
g49
aVaI
p5489
ag40
ag3
asVjoined
p5490
(lp5491
VdZ
p5492
aVOI
p5493
ag22
ag5
asVlarge
p5494
(lp5495
g29
aVA@
p5496
aVdZ
p5497
asVsand
p5498
(lp5499
g40
ag20
ag22
ag5
asVundone
p5500
(lp5501
g75
ag22
ag5
ag75
ag22
asVsalute
p5502
(lp5503
g40
ag4
ag29
aVu:
p5504
ag3
asVsmall
p5505
(lp5506
g40
ag19
aVO:
p5507
ag29
asVlisa
p5508
(lp5509
g29
aVi:
p5510
ag40
ag4
asVpeon
p5511
(lp5512
g42
aVi:
p5513
ag12
ag4
ag22
asVmaggie
p5514
(lp5515
g19
ag20
ag21
ag76
asVentourage
p5516
(lp5517
g164
ag22
ag3
ag141
ag68
aVA:
p5518
ag46
asVhumongous
p5519
(lp5520
g49
ag32
aVu:
p5521
ag19
ag75
ag50
ag21
ag4
ag40
asVquicker
p5522
(lp5523
g25
ag101
ag24
ag25
ag88
asVneighborhood
p5524
(lp5525
g22
aVeI
p5526
ag74
ag88
ag49
ag141
ag5
asVbeamos
p5527
(lp5528
g74
aVi:
p5529
ag19
aVoU
p5530
ag7
asVten
p5531
(lp5532
g3
ag23
ag22
asVjokin
p5533
(lp5534
VdZ
p5535
ag164
ag25
ag24
ag22
asVchocking
p5536
(lp5537
VtS
p5538
ag164
ag25
ag24
ag50
asVtec
p5539
(lp5540
g3
ag23
ag25
asVscarf
p5541
(lp5542
g40
ag25
aVA@
p5543
ag36
asVsmithnwes
p5544
(lp5545
g40
ag19
ag24
ag103
ag22
ag101
ag24
ag7
asVpast
p5546
(lp5547
g42
aVaa
p5548
ag40
ag3
asVburger
p5549
(lp5550
g74
aV3:
p5551
ag21
ag88
asVrate
p5552
(lp5553
g68
aVeI
p5554
ag3
asVshinin
p5555
(lp5556
g116
aVaI
p5557
ag22
ag24
ag22
asVlawyer
p5558
(lp5559
g29
aVOI
p5560
ag88
asVnba
p5561
(lp5562
g23
ag22
ag74
aVi:
p5563
ag12
aVeI
p5564
asVflashback
p5565
(lp5566
g36
ag29
ag20
ag116
ag74
ag20
ag25
asVcigars
p5567
(lp5568
g40
aVI2
p5569
ag21
aVA@
p5570
ag7
asVconscience
p5571
(lp5572
g25
ag164
ag22
ag116
ag4
ag22
ag40
asVwill
p5573
(lp5574
g101
ag24
ag29
asVberetta
p5575
(lp5576
g74
ag23
ag68
ag23
ag3
ag4
asVtussle
p5577
(lp5578
g3
ag75
ag40
aV@L
p5579
asVbrackets
p5580
(lp5581
g74
ag68
ag20
ag25
aVI2
p5582
ag3
ag40
asVsun
p5583
(lp5584
g40
ag75
ag22
asVspendin
p5585
(lp5586
g40
ag42
ag23
ag22
ag5
ag24
ag22
asVcircumstance
p5587
(lp5588
g40
aV3:
p5589
ag25
ag4
ag19
ag40
ag3
ag20
ag22
ag40
asVmusta
p5590
(lp5591
g19
ag75
ag40
ag3
ag4
asVlearned
p5592
(lp5593
g29
aV3:
p5594
ag22
ag5
asVchange
p5595
(lp5596
VtS
p5597
aVeI
p5598
ag22
aVdZ
p5599
asVwrecker
p5600
(lp5601
g68
ag23
ag25
ag88
asVmethod
p5602
(lp5603
g19
ag23
ag103
ag4
ag5
asVfull
p5604
(lp5605
g36
ag141
ag29
asVloose
p5606
(lp5607
g29
aVu:
p5608
ag40
asVmotherfucker
p5609
(lp5610
g19
ag75
ag174
ag4
ag36
ag75
ag25
ag88
asVhours
p5611
(lp5612
VaU
p5613
ag88
ag7
asVranger
p5614
(lp5615
g68
aVeI
p5616
ag22
aVdZ
p5617
ag88
asVkillings
p5618
(lp5619
g25
ag24
ag29
ag24
ag50
ag7
asVwitcha
p5620
(lp5621
g101
ag24
aVtS
p5622
ag4
asVprimo
p5623
(lp5624
g42
ag68
aVi:
p5625
ag19
aVoU
p5626
asVtrunk
p5627
(lp5628
g3
ag68
ag75
ag50
ag25
asVstrong
p5629
(lp5630
g40
ag3
ag68
ag164
ag50
asVrespect
p5631
(lp5632
g68
aVI2
p5633
ag40
ag42
ag23
ag25
ag3
asVlegend
p5634
(lp5635
g29
ag23
aVdZ
p5636
ag4
ag22
ag5
asVfantasies
p5637
(lp5638
g36
aVaa
p5639
ag22
ag3
ag4
ag40
ag76
ag7
asV
p5640
(lp5641
g20
asVbible
p5642
(lp5643
g74
aVaI
p5644
ag74
aV@L
p5645
asVprosecutors
p5646
(lp5647
g42
ag68
ag164
ag40
aVI2
p5648
ag25
ag32
aVu:
p5649
ag3
ag88
ag7
asVheifer
p5650
(lp5651
g49
ag23
ag36
ag88
asVventriloquist
p5652
(lp5653
g131
ag23
ag22
ag3
ag68
ag24
ag29
ag4
ag25
ag101
ag24
ag40
ag3
asVlosses
p5654
(lp5655
g29
ag164
ag40
aVI2
p5656
ag7
asVstorefront
p5657
(lp5658
g40
ag3
aVo@
p5659
ag36
ag68
ag75
ag22
ag3
asVwigged
p5660
(lp5661
g101
ag24
ag21
ag5
asVevil
p5662
(lp5663
Vi:
p5664
ag131
aV@L
p5665
asVdrawers
p5666
(lp5667
g5
ag68
aVO@
p5668
ag7
asVamount
p5669
(lp5670
Va#
p5671
ag19
aVaU
p5672
ag22
ag3
asVcoolest
p5673
(lp5674
g25
aVu:
p5675
ag29
aVI2
p5676
ag40
ag3
asVgear
p5677
(lp5678
g21
aVi@3
p5679
asVpick
p5680
(lp5681
g42
ag24
ag25
asVaction
p5682
(lp5683
g20
ag25
ag116
ag4
ag22
asVcountin
p5684
(lp5685
g25
aVaU
p5686
ag22
ag3
ag24
ag22
asVmedics
p5687
(lp5688
g19
ag23
ag5
ag24
ag25
ag40
asVsticking
p5689
(lp5690
g40
ag3
ag24
ag25
ag24
ag50
asVrootin
p5691
(lp5692
g68
aVu:
p5693
ag3
ag24
ag22
asVfollowed
p5694
(lp5695
g36
ag164
ag29
aVoU
p5696
ag5
asVlimos
p5697
(lp5698
g29
ag24
ag19
aVoU
p5699
ag7
asVfamily
p5700
(lp5701
g36
ag20
ag19
ag24
ag29
ag76
asVclique
p5702
(lp5703
g25
ag29
aVi:
p5704
ag25
asVvest
p5705
(lp5706
g131
ag23
ag40
ag3
asVscreens
p5707
(lp5708
g40
ag25
ag68
aVi:
p5709
ag22
ag7
asVput
p5710
(lp5711
g42
ag141
ag3
asVvip
p5712
(lp5713
g131
ag24
ag42
asVsnug
p5714
(lp5715
g40
ag22
ag75
ag21
asVswingin
p5716
(lp5717
g40
ag101
ag24
ag50
ag21
ag24
ag22
asVtrained
p5718
(lp5719
g3
ag68
aVeI
p5720
ag22
ag5
asVtoys
p5721
(lp5722
g3
aVOI
p5723
ag7
asVgunmen
p5724
(lp5725
g21
ag75
ag22
ag19
ag23
ag22
asVpulls
p5726
(lp5727
g42
ag141
ag29
ag7
asVsits
p5728
(lp5729
g40
ag24
ag3
ag40
asVthatll
p5730
(lp5731
g103
ag20
ag3
ag29
aV@L
p5732
asVcasket
p5733
(lp5734
g25
aVaa
p5735
ag40
ag25
aVI2
p5736
ag3
asVeye
p5737
(lp5738
VaI
p5739
asVtakes
p5740
(lp5741
g3
aVeI
p5742
ag25
ag40
asVwiped
p5743
(lp5744
g101
aVaI
p5745
ag42
ag3
asVtwo
p5746
(lp5747
g3
aVu:
p5748
asVcliquo
p5749
(lp5750
g25
ag29
ag24
ag25
ag101
aVoU
p5751
asVfortune
p5752
(lp5753
g36
aVO@
p5754
aVtS
p5755
aVu:
p5756
ag22
asVmori
p5757
(lp5758
g19
aVO@
p5759
ag68
ag76
asVteamin
p5760
(lp5761
g3
aVi:
p5762
ag19
ag24
ag22
asVtacky
p5763
(lp5764
g3
ag20
ag25
ag76
asVmore
p5765
(lp5766
g19
aVo@
p5767
asVlinden
p5768
(lp5769
g29
ag24
ag22
ag5
ag4
ag22
asVflat
p5770
(lp5771
g36
ag29
ag20
ag3
asVdiamond
p5772
(lp5773
g5
aVaI@
p5774
ag19
ag4
ag22
ag5
asVdoor
p5775
(lp5776
g5
aVo@
p5777
asVknows
p5778
(lp5779
g22
aVoU
p5780
ag7
asVpurse
p5781
(lp5782
g42
aV3:
p5783
ag40
asVdrips
p5784
(lp5785
g5
ag68
ag24
ag42
ag40
asVmelon
p5786
(lp5787
g19
ag23
ag29
ag4
ag22
asVlanded
p5788
(lp5789
g29
ag20
ag22
ag5
aVI2
p5790
ag5
asVfloyd
p5791
(lp5792
g36
ag29
aVOI
p5793
ag5
asVkeyhole
p5794
(lp5795
g25
aVi:
p5796
ag49
aVoU
p5797
ag29
asVbasically
p5798
(lp5799
g74
aVeI
p5800
ag40
ag24
ag25
ag29
ag76
asVbroke
p5801
(lp5802
g74
ag68
aVoU
p5803
ag25
asVknown
p5804
(lp5805
g22
aVoU
p5806
ag22
asVdoom
p5807
(lp5808
g5
aVu:
p5809
ag19
asVglad
p5810
(lp5811
g21
ag29
ag20
ag5
asVleary
p5812
(lp5813
g29
aVi@3
p5814
ag68
ag76
asVblemishes
p5815
(lp5816
g74
ag29
ag23
ag19
ag24
ag116
aVI2
p5817
ag7
asVkeeping
p5818
(lp5819
g25
aVi:
p5820
ag42
ag24
ag50
asVshorties
p5821
(lp5822
g116
aVO@
p5823
ag3
ag76
ag7
asVscience
p5824
(lp5825
g40
aVaI@
p5826
ag22
ag40
asVpataki
p5827
(lp5828
g42
ag20
ag3
ag20
ag25
ag76
asVnina
p5829
(lp5830
g22
aVi:
p5831
ag22
ag4
asVvs
p5832
(lp5833
g131
aVi:
p5834
ag12
ag23
ag40
asVnine
p5835
(lp5836
g22
aVaI
p5837
ag22
asVsent
p5838
(lp5839
g40
ag23
ag22
ag3
asVlearn
p5840
(lp5841
g29
aV3:
p5842
ag22
asVknocked
p5843
(lp5844
g22
ag164
ag25
ag3
asVhistory
p5845
(lp5846
g49
ag24
ag40
ag3
ag4
ag68
ag76
asVsapphires
p5847
(lp5848
g40
ag20
ag36
aVaI@
p5849
ag7
asVcompare
p5850
(lp5851
g25
ag4
ag19
ag42
aVe@
p5852
asVbrown
p5853
(lp5854
g74
ag68
aVaU
p5855
ag22
asVhandshakesll
p5856
(lp5857
g49
ag20
ag22
ag5
ag116
aVeI
p5858
ag25
ag40
ag29
aV@L
p5859
asVstates
p5860
(lp5861
g40
ag3
aVeI
p5862
ag3
ag40
asVbreathing
p5863
(lp5864
g74
ag68
aVi:
p5865
ag174
ag24
ag50
asVnumbers
p5866
(lp5867
g22
ag75
ag19
ag74
ag88
ag7
asVsense
p5868
(lp5869
g40
ag23
ag22
ag40
asVdress
p5870
(lp5871
g5
ag68
ag23
ag40
asVlambs
p5872
(lp5873
g29
ag20
ag19
ag7
asVhomicide
p5874
(lp5875
g49
ag164
ag19
ag24
ag40
aVaI
p5876
ag5
asVhuge
p5877
(lp5878
g49
ag32
aVu:
p5879
aVdZ
p5880
asVharrys
p5881
(lp5882
g49
ag20
ag68
ag76
ag7
asVcourt
p5883
(lp5884
g25
aVo@
p5885
ag3
asVbat
p5886
(lp5887
g74
ag20
ag3
asVcocking
p5888
(lp5889
g25
ag164
ag25
ag24
ag50
asVrather
p5890
(lp5891
g68
aVA:
p5892
ag174
ag88
asVbreaking
p5893
(lp5894
g74
ag68
aVeI
p5895
ag25
ag24
ag50
asVstayed
p5896
(lp5897
g40
ag3
aVeI
p5898
ag5
asVthrills
p5899
(lp5900
g103
ag68
ag24
ag29
ag7
asVuntied
p5901
(lp5902
g75
ag22
ag3
aVaI
p5903
ag5
asVglowing
p5904
(lp5905
g21
ag29
aVoU
p5906
ag24
ag50
asVfreshly
p5907
(lp5908
g36
ag68
ag23
ag116
ag29
ag76
asVbentleys
p5909
(lp5910
g74
ag23
ag22
ag3
ag29
ag76
ag7
asVlibate
p5911
(lp5912
g29
ag24
ag74
aVeI
p5913
ag3
asVwigs
p5914
(lp5915
g101
ag24
ag21
ag7
asVplottin
p5916
(lp5917
g42
ag29
ag164
ag3
ag24
ag22
asVplant
p5918
(lp5919
g42
ag29
aVaa
p5920
ag22
ag3
asVsandwich
p5921
(lp5922
g40
ag20
ag22
ag5
ag101
ag24
aVtS
p5923
asVtried
p5924
(lp5925
g3
ag68
aVaI
p5926
ag5
asVrude
p5927
(lp5928
g68
aVu:
p5929
ag5
asVbags
p5930
(lp5931
g74
ag20
ag21
ag7
asVliberace
p5932
(lp5933
g29
ag24
ag74
ag88
ag68
aVeI
p5934
ag40
asVwhippin
p5935
(lp5936
g101
ag24
ag42
ag24
ag22
asVminds
p5937
(lp5938
g19
aVaI
p5939
ag22
ag5
ag7
asVplane
p5940
(lp5941
g42
ag29
aVeI
p5942
ag22
asVstreets
p5943
(lp5944
g40
ag3
ag68
aVi:
p5945
ag3
ag40
asVblood
p5946
(lp5947
g74
ag29
ag75
ag5
asVnumb
p5948
(lp5949
g22
ag75
ag19
asVcoming
p5950
(lp5951
g25
ag75
ag19
aVI2
p5952
ag50
asVfo
p5953
(lp5954
g36
aVoU
p5955
asg20
(lp5956
VeI
p5957
asVgrands
p5958
(lp5959
g21
ag68
ag20
ag22
ag5
ag7
asVmorphine
p5960
(lp5961
g19
aVO@
p5962
ag36
aVi:
p5963
ag22
asVcoat
p5964
(lp5965
g25
aVoU
p5966
ag3
asVstash
p5967
(lp5968
g40
ag3
ag20
ag116
asVdeuces
p5969
(lp5970
g5
ag32
aVu:
p5971
ag40
aVI2
p5972
ag7
asVmislead
p5973
(lp5974
g19
aVI2
p5975
ag40
ag29
aVi:
p5976
ag5
asVgrinnin
p5977
(lp5978
g21
ag68
ag24
ag22
ag24
ag22
asVmethadone
p5979
(lp5980
g19
ag23
ag103
aVa#
p5981
ag5
aVoU
p5982
ag22
asVbanks
p5983
(lp5984
g74
ag20
ag50
ag25
ag40
asVpleasure
p5985
(lp5986
g42
ag29
ag23
ag46
ag88
asVbreads
p5987
(lp5988
g74
ag68
ag23
ag5
ag7
asVdream
p5989
(lp5990
g5
ag68
aVi:
p5991
ag19
asVplaying
p5992
(lp5993
g42
ag29
aVeI
p5994
ag24
ag50
asVchicks
p5995
(lp5996
VtS
p5997
ag24
ag25
ag40
asVhelp
p5998
(lp5999
g49
ag23
ag29
ag42
asVgauges
p6000
(lp6001
g21
aVeI
p6002
aVdZ
p6003
aVI2
p6004
ag7
asVstains
p6005
(lp6006
g40
ag3
aVeI
p6007
ag22
ag7
asVessence
p6008
(lp6009
g23
ag40
ag4
ag22
ag40
asVninetys
p6010
(lp6011
g22
aVaI
p6012
ag22
ag3
ag76
ag7
asVemmanuel
p6013
(lp6014
VI2
p6015
ag19
ag20
ag22
ag32
aVu:
p6016
aV@L
p6017
asVmission
p6018
(lp6019
g19
ag24
ag116
ag4
ag22
asVtrade
p6020
(lp6021
g3
ag68
aVeI
p6022
ag5
asVheld
p6023
(lp6024
g49
ag23
ag29
ag5
asVpapes
p6025
(lp6026
g42
aVeI
p6027
ag42
ag40
asVnaughty
p6028
(lp6029
g22
aVO:
p6030
ag3
ag76
asVdough
p6031
(lp6032
g5
aVoU
p6033
asVtoetagging
p6034
(lp6035
g3
aVoU
p6036
ag3
ag20
ag21
ag24
ag50
asVpeppered
p6037
(lp6038
g42
ag23
ag42
ag88
ag5
asVcommitted
p6039
(lp6040
g25
ag4
ag19
ag24
ag3
aVI2
p6041
ag5
asVhell
p6042
(lp6043
g49
ag23
ag29
asVmcdonalds
p6044
(lp6045
g19
ag4
ag25
ag5
ag164
ag22
aV@L
p6046
ag5
ag7
asVsuffer
p6047
(lp6048
g40
ag75
ag36
ag88
asVtrouble
p6049
(lp6050
g3
ag68
ag75
ag74
aV@L
p6051
asVromance
p6052
(lp6053
g68
aVoU
p6054
ag19
ag20
ag22
ag40
asVlaced
p6055
(lp6056
g29
aVeI
p6057
ag40
ag3
asVshotty
p6058
(lp6059
g116
ag164
ag3
ag76
asVnickelplated
p6060
(lp6061
g22
ag24
ag25
aVI2
p6062
ag29
ag42
ag29
aVeI
p6063
ag3
aVI2
p6064
ag5
asVpray
p6065
(lp6066
g42
ag68
aVeI
p6067
asVtalkin
p6068
(lp6069
g3
aVO:
p6070
ag25
ag24
ag22
asVchasin
p6071
(lp6072
VtS
p6073
ag20
ag40
ag24
ag22
asVlate
p6074
(lp6075
g29
aVeI
p6076
ag3
asVtoupee
p6077
(lp6078
g3
aVu:
p6079
ag42
aVeI
p6080
asVdolly
p6081
(lp6082
g5
ag164
ag29
ag76
asVmacaroni
p6083
(lp6084
g19
ag20
ag25
aVa#
p6085
ag68
aVoU
p6086
ag22
ag76
asVbout
p6087
(lp6088
g74
aVaU
p6089
ag3
asVmight
p6090
(lp6091
g19
aVaI
p6092
ag3
asVfiner
p6093
(lp6094
g36
aVaI
p6095
ag22
ag88
asVfool
p6096
(lp6097
g36
aVu:
p6098
ag29
asVevening
p6099
(lp6100
Vi:
p6101
ag131
ag22
ag24
ag50
asVreturn
p6102
(lp6103
g68
aVI2
p6104
ag3
aV3:
p6105
ag22
asVyo
p6106
(lp6107
g32
aVoU
p6108
asVfood
p6109
(lp6110
g36
aVu:
p6111
ag5
asVsucker
p6112
(lp6113
g40
ag75
ag25
ag88
asVparaplegic
p6114
(lp6115
g42
ag20
ag68
ag4
ag42
ag29
aVi:
p6116
aVdZ
p6117
ag24
ag25
asVfuckface
p6118
(lp6119
g36
ag75
ag25
ag36
aVeI
p6120
ag40
asVpalming
p6121
(lp6122
g42
aVA:
p6123
ag19
ag24
ag50
asVunits
p6124
(lp6125
g32
aVu:
p6126
ag22
ag24
ag3
ag40
asVdisclouse
p6127
(lp6128
g5
aVI2
p6129
ag40
ag25
ag29
aVaU
p6130
ag40
asVrank
p6131
(lp6132
g68
ag20
ag50
ag25
asVfoot
p6133
(lp6134
g36
ag141
ag3
asVninja
p6135
(lp6136
g22
ag24
ag22
aVdZ
p6137
ag4
asVbigger
p6138
(lp6139
g74
ag24
ag21
ag88
asVgrehan
p6140
(lp6141
g21
ag68
ag23
ag49
ag4
ag22
asVgets
p6142
(lp6143
g21
ag23
ag3
ag40
asVshop
p6144
(lp6145
g116
ag164
ag42
asVfantasy
p6146
(lp6147
g36
aVaa
p6148
ag22
ag3
ag4
ag40
ag76
asValways
p6149
(lp6150
VO:
p6151
ag29
ag101
aVeI
p6152
ag7
asVsynthesize
p6153
(lp6154
g40
ag24
ag22
ag103
ag4
ag40
aVaI
p6155
ag7
asVrobbin
p6156
(lp6157
g68
ag164
ag74
ag24
ag22
asVshottie
p6158
(lp6159
g116
ag164
ag3
ag76
asVbless
p6160
(lp6161
g74
ag29
ag23
ag40
asVeleanor
p6162
(lp6163
VI2
p6164
ag29
aVi:
p6165
ag22
ag88
asVlacy
p6166
(lp6167
g29
aVeI
p6168
ag40
ag76
asVgoofs
p6169
(lp6170
g21
aVu:
p6171
ag36
ag40
asVnotes
p6172
(lp6173
g22
aVoU
p6174
ag3
ag40
asVlifestyles
p6175
(lp6176
g29
aVaI
p6177
ag36
ag40
ag3
aVaI
p6178
ag29
ag7
asVheavy
p6179
(lp6180
g49
ag23
ag131
ag76
asVweek
p6181
(lp6182
g101
aVi:
p6183
ag25
asVharm
p6184
(lp6185
g49
aVA@
p6186
ag19
asVbrunette
p6187
(lp6188
g74
ag68
aVu:
p6189
ag22
ag23
ag3
asVchopper
p6190
(lp6191
VtS
p6192
ag164
ag42
ag88
asVstickups
p6193
(lp6194
g40
ag3
ag24
ag25
ag75
ag42
ag40
asVjaws
p6195
(lp6196
VdZ
p6197
aVO:
p6198
ag7
asVfish
p6199
(lp6200
g36
ag24
ag116
asVhard
p6201
(lp6202
g49
aVA@
p6203
ag5
asVfoxes
p6204
(lp6205
g36
ag164
ag25
ag40
aVI2
p6206
ag7
asVgun
p6207
(lp6208
g21
ag75
ag22
asVextended
p6209
(lp6210
g23
ag25
ag40
ag3
ag23
ag22
ag5
aVI2
p6211
ag5
asVconnect
p6212
(lp6213
g25
ag4
ag22
ag23
ag25
ag3
asVblues
p6214
(lp6215
g74
ag29
aVu:
p6216
ag7
asVmurders
p6217
(lp6218
g19
aV3:
p6219
ag5
ag88
ag7
asVkahlua
p6220
(lp6221
g25
aVA:
p6222
ag29
aVu:
p6223
ag4
asVinsurance
p6224
(lp6225
g24
ag22
ag116
aVU@
p6226
ag68
ag4
ag22
ag40
asVreally
p6227
(lp6228
g68
aVi@
p6229
ag29
ag24
asVsilky
p6230
(lp6231
g40
ag24
ag29
ag25
ag76
asVlipstick
p6232
(lp6233
g29
ag24
ag42
ag40
ag3
ag24
ag25
asVgunnin
p6234
(lp6235
g21
ag75
ag22
ag24
ag22
asVlinens
p6236
(lp6237
g29
ag24
ag22
aVI2
p6238
ag22
ag7
asVtrooper
p6239
(lp6240
g3
ag68
aVu:
p6241
ag42
ag88
asVsince
p6242
(lp6243
g40
ag24
ag22
ag40
asVacting
p6244
(lp6245
g20
ag25
ag3
ag24
ag50
asVroughnecks
p6246
(lp6247
g68
ag75
ag36
ag22
ag23
ag25
ag40
asVhealth
p6248
(lp6249
g49
ag23
ag29
ag103
asVhill
p6250
(lp6251
g49
ag24
ag29
asVparadise
p6252
(lp6253
g42
ag20
ag68
ag4
ag5
aVaI
p6254
ag40
asVdrakes
p6255
(lp6256
g5
ag68
aVeI
p6257
ag25
ag40
asVattackin
p6258
(lp6259
Va#
p6260
ag3
ag20
ag25
ag24
ag22
asVmittens
p6261
(lp6262
g19
ag24
ag3
ag4
ag22
ag7
asVhighway
p6263
(lp6264
g49
aVaI
p6265
ag101
aVeI
p6266
asVhumble
p6267
(lp6268
g49
ag75
ag19
ag74
aV@L
p6269
asVass
p6270
(lp6271
g20
ag40
asVslangin
p6272
(lp6273
g40
ag29
ag20
ag50
ag21
ag24
ag22
asVdrink
p6274
(lp6275
g5
ag68
ag24
ag50
ag25
asVbass
p6276
(lp6277
g74
aVeI
p6278
ag40
asVdirt
p6279
(lp6280
g5
aV3:
p6281
ag3
asVyale
p6282
(lp6283
g32
aVeI
p6284
ag29
asVforgive
p6285
(lp6286
g36
ag88
ag21
ag24
ag131
asVpub
p6287
(lp6288
g42
ag75
ag74
asVbraggin
p6289
(lp6290
g74
ag68
ag20
ag21
ag24
ag22
asVreason
p6291
(lp6292
g68
aVi:
p6293
ag7
ag4
ag22
asVheroin
p6294
(lp6295
g49
ag23
ag68
aVoU
p6296
ag24
ag22
asVmembers
p6297
(lp6298
g19
ag23
ag19
ag74
ag88
ag7
asVimagine
p6299
(lp6300
VI2
p6301
ag19
ag20
aVdZ
p6302
aVI2
p6303
ag22
asVask
p6304
(lp6305
Vaa
p6306
ag40
ag25
asVhorse
p6307
(lp6308
g49
aVO@
p6309
ag40
asVash
p6310
(lp6311
g20
ag116
asVbeginning
p6312
(lp6313
g74
ag24
ag21
ag24
ag22
ag24
ag50
asVsidewalk
p6314
(lp6315
g40
aVaI
p6316
ag5
ag101
aVO:
p6317
ag25
asVlag
p6318
(lp6319
g29
ag20
ag21
asVcookin
p6320
(lp6321
g25
ag141
ag25
ag24
ag22
asVthrown
p6322
(lp6323
g103
ag68
aVoU
p6324
ag22
asVdefinition
p6325
(lp6326
g5
ag23
ag36
ag24
ag22
ag24
ag116
ag4
ag22
asVopps
p6327
(lp6328
g164
ag42
ag40
asVthread
p6329
(lp6330
g103
ag68
ag23
ag5
asVso
p6331
(lp6332
g40
aVoU
p6333
asVamericas
p6334
(lp6335
Va#
p6336
ag19
ag23
ag68
ag24
ag25
ag4
ag7
asVamerican
p6337
(lp6338
Va#
p6339
ag19
ag23
ag68
ag24
ag25
ag4
ag22
asVthreat
p6340
(lp6341
g103
ag68
ag23
ag3
asVdivorce
p6342
(lp6343
g5
aVI2
p6344
ag131
aVo@
p6345
ag40
asVcastle
p6346
(lp6347
g25
aVaa
p6348
ag40
aV@L
p6349
asVhearse
p6350
(lp6351
g49
aV3:
p6352
ag40
asVknots
p6353
(lp6354
g22
ag164
ag3
ag40
asVcopper
p6355
(lp6356
g25
ag164
ag42
ag88
asVmajor
p6357
(lp6358
g19
aVeI
p6359
aVdZ
p6360
ag88
asVsmoother
p6361
(lp6362
g40
ag19
aVu:
p6363
ag174
ag88
asVdont
p6364
(lp6365
g5
aVoU
p6366
ag22
ag3
asVslipped
p6367
(lp6368
g40
ag29
ag24
ag42
ag3
asVdino
p6369
(lp6370
g5
aVi:
p6371
ag22
aVoU
p6372
asVmotherfuckers
p6373
(lp6374
g19
ag75
ag174
ag4
ag36
ag75
ag25
ag88
ag7
asVarsenal
p6375
(lp6376
VA@
p6377
ag40
ag4
ag22
aV@L
p6378
asVfeet
p6379
(lp6380
g36
aVi:
p6381
ag3
asVsympathy
p6382
(lp6383
g40
ag24
ag19
ag42
ag4
ag103
ag76
asVdone
p6384
(lp6385
g5
ag75
ag22
asVpablo
p6386
(lp6387
g42
ag20
ag74
ag29
aVoU
p6388
asVkobe
p6389
(lp6390
g25
aVoU
p6391
ag74
asVwages
p6392
(lp6393
g101
aVeI
p6394
aVdZ
p6395
aVI2
p6396
ag7
asVmiss
p6397
(lp6398
g19
ag24
ag40
asVsheep
p6399
(lp6400
g116
aVi:
p6401
ag42
asVrazor
p6402
(lp6403
g68
aVeI
p6404
ag7
ag88
asVstory
p6405
(lp6406
g40
ag3
aVo@
p6407
ag68
ag76
asVgrimm
p6408
(lp6409
g21
ag68
ag24
ag19
asVguest
p6410
(lp6411
g21
ag23
ag40
ag3
asVjet
p6412
(lp6413
VdZ
p6414
ag23
ag3
asVscript
p6415
(lp6416
g40
ag25
ag68
ag24
ag42
ag3
asVtwenty
p6417
(lp6418
g3
ag101
ag23
ag22
ag3
ag76
asVgrowner
p6419
(lp6420
g21
ag68
aVoU
p6421
ag22
ag88
asVleast
p6422
(lp6423
g29
aVi:
p6424
ag40
ag3
asVhollows
p6425
(lp6426
g49
ag164
ag29
aVoU
p6427
ag7
asVmilitant
p6428
(lp6429
g19
ag24
ag29
ag24
ag3
ag4
ag22
ag3
asVpaint
p6430
(lp6431
g42
aVeI
p6432
ag22
ag3
asVexpand
p6433
(lp6434
g23
ag25
ag40
ag42
ag20
ag22
ag5
asVpassed
p6435
(lp6436
g42
aVaa
p6437
ag40
ag3
asVgrimy
p6438
(lp6439
g21
ag68
aVaI
p6440
ag19
ag76
asVmama
p6441
(lp6442
g19
ag20
ag19
aVa#
p6443
asVhundred
p6444
(lp6445
g49
ag75
ag22
ag5
ag68
aVI2
p6446
ag5
asVsyrup
p6447
(lp6448
g40
ag24
ag68
ag75
ag42
asVfinances
p6449
(lp6450
g36
aVaI
p6451
ag22
ag20
ag22
ag40
aVI2
p6452
ag7
asVstore
p6453
(lp6454
g40
ag3
aVo@
p6455
asVpains
p6456
(lp6457
g42
aVeI
p6458
ag22
ag7
asVjacuzzis
p6459
(lp6460
VdZ
p6461
ag4
ag25
aVu:
p6462
ag7
ag76
ag7
asVexploded
p6463
(lp6464
g23
ag25
ag40
ag42
ag29
aVoU
p6465
ag5
aVI2
p6466
ag5
asVneedle
p6467
(lp6468
g22
aVi:
p6469
ag5
aV@L
p6470
asVhandtohand
p6471
(lp6472
g49
ag20
ag22
ag5
ag3
aVoU
p6473
ag49
ag20
ag22
ag5
asVluckily
p6474
(lp6475
g29
ag75
ag25
ag76
ag29
ag76
asVpart
p6476
(lp6477
g42
aVA@
p6478
ag3
asVrifle
p6479
(lp6480
g68
aVaI
p6481
ag36
aV@L
p6482
asVbelieve
p6483
(lp6484
g74
aVI2
p6485
ag29
aVi:
p6486
ag131
asVstairs
p6487
(lp6488
g40
ag3
aVe@
p6489
ag7
asVbellbottoms
p6490
(lp6491
g74
ag23
ag29
ag74
ag164
ag3
ag4
ag19
ag7
asVking
p6492
(lp6493
g25
ag24
ag50
asVjohn
p6494
(lp6495
VdZ
p6496
ag164
ag22
asVrappin
p6497
(lp6498
g68
ag20
ag42
ag24
ag22
asVincision
p6499
(lp6500
g24
ag22
ag40
ag24
ag46
ag4
ag22
asVmedua
p6501
(lp6502
g19
ag23
ag5
ag32
aVu:
p6503
ag22
ag32
ag4
asVdouble
p6504
(lp6505
g5
ag75
ag74
aV@L
p6506
asVwhores
p6507
(lp6508
g49
aVo@
p6509
ag7
asVbanana
p6510
(lp6511
g74
aVa#
p6512
ag22
aVA:
p6513
ag22
ag4
asVballys
p6514
(lp6515
g74
aVO:
p6516
ag29
ag24
ag7
asVmarriage
p6517
(lp6518
g19
ag20
ag68
aVI2
p6519
aVdZ
p6520
asVsupposed
p6521
(lp6522
g40
ag4
ag42
aVoU
p6523
ag7
ag5
asVdts
p6524
(lp6525
g5
aVi:
p6526
ag3
aVi:
p6527
ag12
ag23
ag40
asVcloudy
p6528
(lp6529
g25
ag29
aVaU
p6530
ag5
ag76
asVrisky
p6531
(lp6532
g68
ag24
ag40
ag25
ag76
asVexecutioner
p6533
(lp6534
g23
ag25
ag40
ag24
ag25
ag32
aVu:
p6535
ag116
ag4
ag22
ag88
asVoutta
p6536
(lp6537
VaU
p6538
ag3
ag4
asVwasnt
p6539
(lp6540
g101
ag164
ag40
ag22
ag3
asVages
p6541
(lp6542
VeI
p6543
aVdZ
p6544
aVI2
p6545
ag7
asVninetynine
p6546
(lp6547
g22
aVaI
p6548
ag22
ag3
ag24
ag22
aVaI
p6549
ag22
asVblond
p6550
(lp6551
g74
ag29
ag164
ag22
ag5
asVbackseat
p6552
(lp6553
g74
ag20
ag25
ag40
aVi:
p6554
ag3
asVcollapse
p6555
(lp6556
g25
ag4
ag29
ag20
ag42
ag40
asVsell
p6557
(lp6558
g40
ag23
ag29
asVlie
p6559
(lp6560
g29
aVaI
p6561
asVnights
p6562
(lp6563
g22
aVaI
p6564
ag3
ag40
asVzero
p6565
(lp6566
g7
aVi@
p6567
ag68
aVoU
p6568
asVcheck
p6569
(lp6570
VtS
p6571
ag23
ag25
asVcarlo
p6572
(lp6573
g25
aVA@
p6574
ag29
aVoU
p6575
asVdoberman
p6576
(lp6577
g5
aVoU
p6578
ag74
ag88
ag19
ag4
ag22
asVbankrolls
p6579
(lp6580
g74
ag20
ag50
ag25
ag68
aVoU
p6581
ag29
ag7
asVstim
p6582
(lp6583
g40
ag3
ag24
ag19
asVlit
p6584
(lp6585
g29
ag24
ag3
asVbreeze
p6586
(lp6587
g74
ag68
aVi:
p6588
ag7
asVbuild
p6589
(lp6590
g74
ag24
ag29
ag5
asVpuffing
p6591
(lp6592
g42
ag75
ag36
ag24
ag50
asVfolders
p6593
(lp6594
g36
aVoU
p6595
ag29
ag5
ag88
ag7
asVserene
p6596
(lp6597
g40
ag4
ag68
aVi:
p6598
ag22
asVhotel
p6599
(lp6600
g49
aVoU
p6601
ag3
ag23
ag29
asVsleepin
p6602
(lp6603
g40
ag29
aVi:
p6604
ag42
ag24
ag22
asVbands
p6605
(lp6606
g74
ag20
ag22
ag5
ag7
asVme
p6607
(lp6608
g19
aVi:
p6609
asVmost
p6610
(lp6611
g19
aVoU
p6612
ag40
ag3
asVbrooklyn
p6613
(lp6614
g74
ag68
ag141
ag25
ag29
ag24
ag22
asVplan
p6615
(lp6616
g42
ag29
ag20
ag22
asVmoss
p6617
(lp6618
g19
ag164
ag40
asVnothing
p6619
(lp6620
g22
ag75
ag103
ag24
ag50
asValpha
p6621
(lp6622
g20
ag29
ag36
ag4
asVmack
p6623
(lp6624
g19
ag20
ag25
asVmodel
p6625
(lp6626
g19
ag164
ag5
aV@L
p6627
asVkiddies
p6628
(lp6629
g25
ag24
ag5
ag24
ag7
asVtotin
p6630
(lp6631
g3
aVoU
p6632
ag3
ag24
ag22
asVphils
p6633
(lp6634
g36
ag24
ag29
ag7
asVgrams
p6635
(lp6636
g21
ag68
ag20
ag19
ag7
asVmobile
p6637
(lp6638
g19
aVoU
p6639
ag74
aVaI
p6640
ag29
asVclear
p6641
(lp6642
g25
ag29
aVi@3
p6643
asVsometimes
p6644
(lp6645
g40
ag75
ag19
ag3
aVaI
p6646
ag19
ag7
asVsnapping
p6647
(lp6648
g40
ag22
ag20
ag42
ag24
ag50
asVbustin
p6649
(lp6650
g74
ag75
ag40
ag3
ag24
ag22
asVdestruct
p6651
(lp6652
g5
aVI2
p6653
ag40
ag3
ag68
ag75
ag25
ag3
asVshakin
p6654
(lp6655
g116
ag20
ag25
ag24
ag22
asVamazed
p6656
(lp6657
Va#
p6658
ag19
aVeI
p6659
ag7
ag5
asVclean
p6660
(lp6661
g25
ag29
aVi:
p6662
ag22
asVzigga
p6663
(lp6664
g7
ag24
ag21
ag4
asVbarrel
p6665
(lp6666
g74
ag20
ag68
aV@L
p6667
asVdragged
p6668
(lp6669
g5
ag68
ag20
ag21
ag5
asVstones
p6670
(lp6671
g40
ag3
aVoU
p6672
ag22
ag7
asVgold
p6673
(lp6674
g21
aVoU
p6675
ag29
ag5
asVsummer
p6676
(lp6677
g40
ag75
ag19
ag88
asVstuffin
p6678
(lp6679
g40
ag3
ag75
ag36
ag24
ag22
asVdoctors
p6680
(lp6681
g5
ag164
ag25
ag3
ag88
ag7
asVmoroccan
p6682
(lp6683
g19
ag4
ag68
ag164
ag25
ag4
ag22
asVlaurenavichi
p6684
(lp6685
g29
aVO:
p6686
ag68
ag4
ag22
aVa#
p6687
ag131
ag24
aVtS
p6688
ag24
asVbooze
p6689
(lp6690
g74
aVu:
p6691
ag7
asVsession
p6692
(lp6693
g40
ag23
ag116
ag4
ag22
asVrelation
p6694
(lp6695
g68
aVI2
p6696
ag29
aVeI
p6697
ag116
ag4
ag22
asVstoned
p6698
(lp6699
g40
ag3
aVoU
p6700
ag22
ag5
asVstores
p6701
(lp6702
g40
ag3
aVo@
p6703
ag7
asVhopped
p6704
(lp6705
g49
ag164
ag42
ag3
asVheavens
p6706
(lp6707
g49
ag23
ag131
ag4
ag22
ag7
asVfind
p6708
(lp6709
g36
aVaI
p6710
ag22
ag5
asVfrankie
p6711
(lp6712
g36
ag68
ag20
ag50
ag25
ag76
asVtesticles
p6713
(lp6714
g3
ag23
ag40
ag3
ag24
ag25
aV@L
p6715
ag7
asVstreetlights
p6716
(lp6717
g40
ag3
ag68
aVi:
p6718
ag3
ag29
aVaI
p6719
ag3
ag40
asVgrazed
p6720
(lp6721
g21
ag68
aVeI
p6722
ag7
ag5
asVcondos
p6723
(lp6724
g25
ag164
ag22
ag5
aVoU
p6725
ag7
asVnervous
p6726
(lp6727
g22
aV3:
p6728
ag131
ag4
ag40
asVless
p6729
(lp6730
g29
ag23
ag40
asVpoppin
p6731
(lp6732
g42
ag164
ag42
ag24
ag22
asVpretty
p6733
(lp6734
g42
ag68
ag24
ag3
ag76
asVfiend
p6735
(lp6736
g36
aVi:
p6737
ag22
ag5
asVdiscuss
p6738
(lp6739
g5
aVI2
p6740
ag40
ag25
ag75
ag40
asVhip
p6741
(lp6742
g49
ag24
ag42
asVshepherd
p6743
(lp6744
g116
ag23
ag42
ag88
ag5
asVweve
p6745
(lp6746
g101
aVi:
p6747
ag131
asVhit
p6748
(lp6749
g49
ag24
ag3
asVfreaks
p6750
(lp6751
g36
ag68
aVi:
p6752
ag25
ag40
asVmugshots
p6753
(lp6754
g19
ag75
ag21
ag116
ag164
ag3
ag40
asVbeams
p6755
(lp6756
g74
aVi:
p6757
ag19
ag7
asVconnections
p6758
(lp6759
g25
ag4
ag22
ag23
ag25
ag116
ag4
ag22
ag7
asVexpress
p6760
(lp6761
g23
ag25
ag40
ag42
ag68
ag23
ag40
asVtrees
p6762
(lp6763
g3
ag68
aVi:
p6764
ag7
asVramshacked
p6765
(lp6766
g68
ag20
ag19
ag116
ag20
ag25
ag3
asVfamous
p6767
(lp6768
g36
aVeI
p6769
ag19
ag4
ag40
asVgrew
p6770
(lp6771
g21
ag68
aVu:
p6772
asVpretending
p6773
(lp6774
g42
ag68
ag24
ag3
ag23
ag22
ag5
ag24
ag50
asVbasement
p6775
(lp6776
g74
aVeI
p6777
ag40
ag19
ag4
ag22
ag3
asVsilk
p6778
(lp6779
g40
ag24
ag29
ag25
asVhim
p6780
(lp6781
g49
ag24
ag19
asVnicholas
p6782
(lp6783
g22
ag24
ag25
ag4
ag29
ag4
ag40
asVelevate
p6784
(lp6785
g23
ag29
ag24
ag131
aVeI
p6786
ag3
asVsyringes
p6787
(lp6788
g40
aVI2
p6789
ag68
ag24
ag22
aVdZ
p6790
aVI2
p6791
ag7
asVcontagious
p6792
(lp6793
g25
ag4
ag22
ag3
aVeI
p6794
aVdZ
p6795
ag4
ag40
asVbreed
p6796
(lp6797
g74
ag68
aVi:
p6798
ag5
asVcry
p6799
(lp6800
g25
ag68
aVaI
p6801
asVretaliation
p6802
(lp6803
g68
aVI2
p6804
ag3
ag20
ag29
ag24
ag12
aVeI
p6805
ag116
ag4
ag22
asVdoubled
p6806
(lp6807
g5
ag75
ag74
aV@L
p6808
ag5
asVfelon
p6809
(lp6810
g36
ag23
ag29
ag4
ag22
asVhype
p6811
(lp6812
g49
aVaI
p6813
ag42
asVx
p6814
(lp6815
g23
ag25
ag40
asVvincent
p6816
(lp6817
g131
ag24
ag22
ag40
ag4
ag22
ag3
asVriver
p6818
(lp6819
g68
ag24
ag131
ag88
asVprecaution
p6820
(lp6821
g42
ag68
ag24
ag25
aVO:
p6822
ag116
ag4
ag22
asVwrote
p6823
(lp6824
g68
aVoU
p6825
ag3
asVtoasters
p6826
(lp6827
g3
aVoU
p6828
ag40
ag3
ag88
ag7
asVinsane
p6829
(lp6830
g24
ag22
ag40
aVeI
p6831
ag22
asVseventeen
p6832
(lp6833
g40
ag23
ag131
ag4
ag22
ag3
aVi:
p6834
ag22
asVset
p6835
(lp6836
g40
ag23
ag3
asVclaimin
p6837
(lp6838
g25
ag29
aVeI
p6839
ag19
ag24
ag22
asVkilo
p6840
(lp6841
g25
aVi:
p6842
ag29
aVoU
p6843
asVaround
p6844
(lp6845
Va#
p6846
ag68
aVaU
p6847
ag22
ag5
asVkilos
p6848
(lp6849
g25
aVi:
p6850
ag29
aVoU
p6851
ag7
asVboochi
p6852
(lp6853
g74
aVu:
p6854
aVtS
p6855
aVaI
p6856
asVcollectively
p6857
(lp6858
g25
ag4
ag29
ag23
ag25
ag3
ag24
ag131
ag29
ag76
asVsee
p6859
(lp6860
g40
aVi:
p6861
asVdumb
p6862
(lp6863
g5
ag75
ag19
asVare
p6864
(lp6865
VA@
p6866
asVsea
p6867
(lp6868
g40
aVi:
p6869
asVclose
p6870
(lp6871
g25
ag29
aVoU
p6872
ag40
asVtiffanys
p6873
(lp6874
g3
ag24
ag36
ag4
ag22
ag76
ag7
asVarm
p6875
(lp6876
VA@
p6877
ag19
asVstrung
p6878
(lp6879
g40
ag3
ag68
ag75
ag50
asVknees
p6880
(lp6881
g22
aVi:
p6882
ag7
asVpapi
p6883
(lp6884
g42
ag20
ag42
ag76
asVlearnt
p6885
(lp6886
g29
aV3:
p6887
ag22
ag3
asVstance
p6888
(lp6889
g40
ag3
aVaa
p6890
ag22
ag40
asVspeed
p6891
(lp6892
g40
ag42
aVi:
p6893
ag5
asVwow
p6894
(lp6895
g101
aVaU
p6896
asVplease
p6897
(lp6898
g42
ag29
aVi:
p6899
ag7
asVexwife
p6900
(lp6901
g23
ag25
ag40
ag101
aVaI
p6902
ag36
asVcase
p6903
(lp6904
g25
aVeI
p6905
ag40
asVfans
p6906
(lp6907
g36
ag20
ag22
ag7
asVverbs
p6908
(lp6909
g131
aV3:
p6910
ag74
ag7
asVrecaro
p6911
(lp6912
g68
aVI2
p6913
ag25
ag20
ag68
aVoU
p6914
asVsilly
p6915
(lp6916
g40
ag24
ag29
ag76
asVburned
p6917
(lp6918
g74
aV3:
p6919
ag22
ag5
asVchampagne
p6920
(lp6921
g116
ag20
ag19
ag42
aVeI
p6922
ag22
asVmeal
p6923
(lp6924
g19
aVi:
p6925
ag29
asVsolo
p6926
(lp6927
g40
aVoU
p6928
ag29
aVoU
p6929
asVqueers
p6930
(lp6931
g25
ag101
aVi@3
p6932
ag7
asVfishscales
p6933
(lp6934
g36
ag24
ag116
ag40
ag25
aVeI
p6935
ag29
ag7
asVpremises
p6936
(lp6937
g42
ag68
ag23
ag19
ag24
ag40
aVI2
p6938
ag7
asVdividends
p6939
(lp6940
g5
ag24
ag131
ag24
ag5
ag23
ag22
ag5
ag7
asVsold
p6941
(lp6942
g40
aVoU
p6943
ag29
ag5
asVoutfit
p6944
(lp6945
VaU
p6946
ag3
ag36
ag24
ag3
asVwreath
p6947
(lp6948
g68
aVi:
p6949
ag103
asVspray
p6950
(lp6951
g40
ag42
ag68
aVeI
p6952
asVpledgin
p6953
(lp6954
g42
ag29
ag23
aVdZ
p6955
ag24
ag22
asVbetrayed
p6956
(lp6957
g74
aVI2
p6958
ag3
ag68
aVeI
p6959
ag5
asVcondo
p6960
(lp6961
g25
ag164
ag22
ag5
aVoU
p6962
asVspeakin
p6963
(lp6964
g40
ag42
aVi:
p6965
ag25
ag24
ag22
asVlyrical
p6966
(lp6967
g29
ag24
ag68
ag24
ag25
aV@L
p6968
asVtorchin
p6969
(lp6970
g3
aVo@
p6971
ag25
ag24
ag22
asVdwelled
p6972
(lp6973
g5
ag101
ag23
ag29
ag5
asVlast
p6974
(lp6975
g29
aVaa
p6976
ag40
ag3
asVreverse
p6977
(lp6978
g68
aVI2
p6979
ag131
aV3:
p6980
ag40
asVhardrocks
p6981
(lp6982
g49
aVA@
p6983
ag5
ag68
ag164
ag25
ag40
asVsecrets
p6984
(lp6985
g40
aVi:
p6986
ag25
ag68
aVI2
p6987
ag3
ag40
asVtootin
p6988
(lp6989
g3
aVu:
p6990
ag3
ag24
ag22
asVbarely
p6991
(lp6992
g74
aVe@
p6993
ag29
ag76
asVmollys
p6994
(lp6995
g19
ag164
ag29
ag76
ag7
asVromas
p6996
(lp6997
g68
aVoU
p6998
ag19
ag4
ag7
asVblazed
p6999
(lp7000
g74
ag29
aVeI
p7001
ag7
ag5
asVbecame
p7002
(lp7003
g74
ag24
ag25
aVeI
p7004
ag19
asVsuede
p7005
(lp7006
g40
ag101
aVeI
p7007
ag5
asVwhole
p7008
(lp7009
g49
aVoU
p7010
ag29
asVload
p7011
(lp7012
g29
aVoU
p7013
ag5
asVflies
p7014
(lp7015
g36
ag29
aVaI
p7016
ag7
asVconsume
p7017
(lp7018
g25
ag4
ag22
ag40
ag32
aVu:
p7019
ag19
asVheaded
p7020
(lp7021
g49
ag23
ag5
aVI2
p7022
ag5
asVsimple
p7023
(lp7024
g40
ag24
ag19
ag42
aV@L
p7025
asVsweet
p7026
(lp7027
g40
ag101
aVi:
p7028
ag3
asVsteele
p7029
(lp7030
g40
ag3
aVi:
p7031
ag29
asVdudes
p7032
(lp7033
g5
ag32
aVu:
p7034
ag5
ag7
asVgypsy
p7035
(lp7036
VdZ
p7037
ag24
ag42
ag40
ag76
asVcried
p7038
(lp7039
g25
ag68
aVaI
p7040
ag5
asVsimply
p7041
(lp7042
g40
ag24
ag19
ag42
ag29
ag76
asVlikes
p7043
(lp7044
g29
aVaI
p7045
ag25
ag40
asVchloe
p7046
(lp7047
g25
ag29
aVoU
p7048
ag76
asVchurch
p7049
(lp7050
VtS
p7051
aV3:
p7052
aVtS
p7053
asVthroughout
p7054
(lp7055
g103
ag68
aVu:
p7056
aVaU
p7057
ag3
asVcrispy
p7058
(lp7059
g25
ag68
ag24
ag40
ag42
ag76
asVbeats
p7060
(lp7061
g74
aVi:
p7062
ag3
ag40
asVbelt
p7063
(lp7064
g74
ag23
ag29
ag3
asVsuspenders
p7065
(lp7066
g40
ag4
ag40
ag42
ag23
ag22
ag5
ag88
ag7
asVdevil
p7067
(lp7068
g5
ag23
ag131
aV@L
p7069
asVraise
p7070
(lp7071
g68
aVeI
p7072
ag7
asVglocks
p7073
(lp7074
g21
ag29
ag164
ag25
ag40
asVverse
p7075
(lp7076
g131
aV3:
p7077
ag40
asVwhos
p7078
(lp7079
g49
aVu:
p7080
ag7
asVconvicted
p7081
(lp7082
g25
ag4
ag22
ag131
ag24
ag25
ag3
aVI2
p7083
ag5
asVpa
p7084
(lp7085
g42
aVA:
p7086
asVdamn
p7087
(lp7088
g5
ag20
ag19
asVnother
p7089
(lp7090
g22
ag75
ag174
ag88
asVportraits
p7091
(lp7092
g42
aVo@
p7093
ag3
ag68
aVeI
p7094
ag3
ag40
asVcollected
p7095
(lp7096
g25
ag4
ag29
ag23
ag25
ag3
aVI2
p7097
ag5
asVaruba
p7098
(lp7099
g20
ag68
aVu:
p7100
ag74
ag4
asVbrick
p7101
(lp7102
g74
ag68
ag24
ag25
asVterritory
p7103
(lp7104
g3
ag23
ag68
ag24
ag3
ag4
ag68
ag76
asVwoke
p7105
(lp7106
g101
aVoU
p7107
ag25
asVwalter
p7108
(lp7109
g101
ag164
ag29
ag3
ag88
asVboy
p7110
(lp7111
g74
aVOI
p7112
asVfire
p7113
(lp7114
g36
aVaI@
p7115
asVmappin
p7116
(lp7117
g19
ag20
ag42
ag24
ag22
asVgat
p7118
(lp7119
g21
ag20
ag3
asVgas
p7120
(lp7121
g21
ag20
ag40
asVspttin
p7122
(lp7123
g23
ag40
ag42
aVi:
p7124
ag3
aVi:
p7125
ag3
ag24
ag22
asVelse
p7126
(lp7127
g23
ag29
ag40
asVsilencer
p7128
(lp7129
g40
aVaI
p7130
ag29
ag4
ag22
ag40
ag88
asVraces
p7131
(lp7132
g68
aVeI
p7133
ag40
aVI2
p7134
ag7
asVunderstand
p7135
(lp7136
g75
ag22
ag5
ag88
ag40
ag3
ag20
ag22
ag5
asVliver
p7137
(lp7138
g29
ag24
ag131
ag88
asVprices
p7139
(lp7140
g42
ag68
aVaI
p7141
ag40
aVI2
p7142
ag7
asVpackers
p7143
(lp7144
g42
ag20
ag25
ag88
ag7
asVsixes
p7145
(lp7146
g40
ag24
ag25
ag40
aVI2
p7147
ag7
asVstolen
p7148
(lp7149
g40
ag3
aVoU
p7150
ag29
ag4
ag22
asVthirty
p7151
(lp7152
g103
aV3:
p7153
ag3
ag76
asVstraight
p7154
(lp7155
g40
ag3
ag68
aVeI
p7156
ag3
asVbill
p7157
(lp7158
g74
ag24
ag29
asVscabby
p7159
(lp7160
g40
ag25
ag20
ag74
ag76
asVcrutch
p7161
(lp7162
g25
ag68
ag75
aVtS
p7163
asVrope
p7164
(lp7165
g68
aVoU
p7166
ag42
asVpace
p7167
(lp7168
g42
aVeI
p7169
ag40
asVwhile
p7170
(lp7171
g101
aVaI
p7172
ag29
asVbarricade
p7173
(lp7174
g74
ag20
ag68
ag24
ag25
aVeI
p7175
ag5
asVleaning
p7176
(lp7177
g29
aVi:
p7178
ag22
ag24
ag50
asVsheets
p7179
(lp7180
g116
aVi:
p7181
ag3
ag40
asVfleet
p7182
(lp7183
g36
ag29
aVi:
p7184
ag3
asVloot
p7185
(lp7186
g29
aVu:
p7187
ag3
asVpack
p7188
(lp7189
g42
ag20
ag25
asVgrip
p7190
(lp7191
g21
ag68
ag24
ag42
asVsmacked
p7192
(lp7193
g40
ag19
ag20
ag25
ag3
asVeyelids
p7194
(lp7195
VaI
p7196
ag29
ag24
ag5
ag7
asVmystic
p7197
(lp7198
g19
ag24
ag40
ag3
ag24
ag25
asVgangstas
p7199
(lp7200
g21
ag20
ag50
ag40
ag3
ag4
ag7
asVrip
p7201
(lp7202
g68
ag24
ag42
asVitself
p7203
(lp7204
g24
ag3
ag40
ag23
ag29
ag36
asVninetynineth
p7205
(lp7206
g22
aVaI
p7207
ag22
ag3
ag24
ag22
aVaI
p7208
ag22
ag4
ag103
asVtriple
p7209
(lp7210
g3
ag68
ag24
ag42
aV@L
p7211
asVscrews
p7212
(lp7213
g40
ag25
ag68
aVu:
p7214
ag7
asVready
p7215
(lp7216
g68
ag23
ag5
ag76
asVrid
p7217
(lp7218
g68
ag24
ag5
asVvanish
p7219
(lp7220
g131
ag20
ag22
ag24
ag116
asVlooms
p7221
(lp7222
g29
aVu:
p7223
ag19
ag7
asVmonroe
p7224
(lp7225
g19
ag164
ag22
ag68
aVoU
p7226
asVchase
p7227
(lp7228
VtS
p7229
aVeI
p7230
ag40
asVfunny
p7231
(lp7232
g36
ag75
ag22
ag76
asVitaly
p7233
(lp7234
g24
ag3
ag4
ag29
ag76
asVshirt
p7235
(lp7236
g116
aV3:
p7237
ag3
asVanymore
p7238
(lp7239
g23
ag22
aVI2
p7240
ag19
aVo@
p7241
asVshortee
p7242
(lp7243
g116
aVO@
p7244
ag3
aVi:
p7245
asVbelong
p7246
(lp7247
g74
aVI2
p7248
ag29
ag164
ag50
asVpsb
p7249
(lp7250
g42
aVi:
p7251
ag12
ag23
ag40
ag74
aVi:
p7252
asVtitsy
p7253
(lp7254
g3
ag24
ag3
ag40
ag76
asVestablished
p7255
(lp7256
VI2
p7257
ag40
ag3
ag20
ag74
ag29
ag24
ag116
ag3
asVpeoples
p7258
(lp7259
g42
aVi:
p7260
ag42
aV@L
p7261
ag7
asVitchy
p7262
(lp7263
g24
aVtS
p7264
ag76
asVslanging
p7265
(lp7266
g40
ag29
ag20
ag50
ag24
ag50
asVhigher
p7267
(lp7268
g49
aVaI
p7269
ag88
asVinvestitures
p7270
(lp7271
g24
ag22
ag131
ag23
ag40
ag3
ag24
aVtS
p7272
ag88
ag7
asVstrips
p7273
(lp7274
g40
ag3
ag68
ag24
ag42
ag40
asVdime
p7275
(lp7276
g5
aVaI
p7277
ag19
asVkeys
p7278
(lp7279
g25
aVi:
p7280
ag7
asVgallery
p7281
(lp7282
g21
ag20
ag29
ag4
ag68
ag76
asVyesterday
p7283
(lp7284
g32
ag23
ag40
ag3
ag88
ag5
aVeI
p7285
asVflows
p7286
(lp7287
g36
ag29
aVoU
p7288
ag7
asValert
p7289
(lp7290
Va#
p7291
ag29
aV3:
p7292
ag3
asVflurry
p7293
(lp7294
g36
ag29
ag75
ag68
ag76
asVmurderin
p7295
(lp7296
g19
aV3:
p7297
ag5
ag88
ag68
ag24
ag22
asVpurpose
p7298
(lp7299
g42
aV3:
p7300
ag42
ag4
ag40
asVziplock
p7301
(lp7302
g7
ag24
ag42
ag29
ag164
ag25
asVstack
p7303
(lp7304
g40
ag3
ag20
ag25
asVrecent
p7305
(lp7306
g68
aVi:
p7307
ag40
ag4
ag22
ag3
asVstarver
p7308
(lp7309
g40
ag3
aVA@
p7310
ag131
ag88
asVjalatas
p7311
(lp7312
VdZ
p7313
ag20
ag29
aVA:
p7314
ag3
ag4
ag7
asVfinesse
p7315
(lp7316
g36
aVI2
p7317
ag22
ag23
ag40
asVglitter
p7318
(lp7319
g21
ag29
ag24
ag3
ag88
asVolder
p7320
(lp7321
VoU
p7322
ag29
ag5
ag88
asVrules
p7323
(lp7324
g68
aVu:
p7325
ag29
ag7
asVtry
p7326
(lp7327
g3
ag68
aVaI
p7328
asVcheek
p7329
(lp7330
VtS
p7331
aVi:
p7332
ag25
asViffy
p7333
(lp7334
g24
ag36
ag76
asVdared
p7335
(lp7336
g5
aVe@
p7337
ag5
asVflippin
p7338
(lp7339
g36
ag29
ag24
ag42
ag24
ag22
asVedge
p7340
(lp7341
g23
aVdZ
p7342
asVflags
p7343
(lp7344
g36
ag29
ag20
ag21
ag7
asVswiss
p7345
(lp7346
g40
ag101
ag24
ag40
asVsawedoff
p7347
(lp7348
g40
aVO:
p7349
ag5
ag164
ag36
asVhuggin
p7350
(lp7351
g49
ag75
ag21
ag24
ag22
asVspend
p7352
(lp7353
g40
ag42
ag23
ag22
ag5
asVpreference
p7354
(lp7355
g42
ag68
ag23
ag36
ag68
ag4
ag22
ag40
asVresidue
p7356
(lp7357
g68
ag23
ag40
ag24
ag5
ag32
aVu:
p7358
asVbirthday
p7359
(lp7360
g74
aV3:
p7361
ag103
ag5
aVeI
p7362
asVsnow
p7363
(lp7364
g40
ag22
aVoU
p7365
asVshape
p7366
(lp7367
g116
aVeI
p7368
ag42
asVshovel
p7369
(lp7370
g116
ag75
ag131
aV@L
p7371
asVhobbes
p7372
(lp7373
g49
ag164
ag74
ag7
asVquestions
p7374
(lp7375
g25
ag101
ag23
ag40
aVtS
p7376
ag4
ag22
ag7
asVmob
p7377
(lp7378
g19
ag164
ag74
asVrambo
p7379
(lp7380
g68
ag20
ag19
ag74
aVoU
p7381
asVprince
p7382
(lp7383
g42
ag68
ag24
ag22
ag40
asVgems
p7384
(lp7385
VdZ
p7386
ag23
ag19
ag7
asVtables
p7387
(lp7388
g3
aVeI
p7389
ag74
aV@L
p7390
ag7
asVcut
p7391
(lp7392
g25
ag75
ag3
asVcus
p7393
(lp7394
g25
ag75
ag40
asVmorals
p7395
(lp7396
g19
ag164
ag68
aV@L
p7397
ag7
asVcup
p7398
(lp7399
g25
ag75
ag42
asVworkers
p7400
(lp7401
g101
aV3:
p7402
ag25
ag88
ag7
asVswinger
p7403
(lp7404
g40
ag101
ag24
ag50
ag21
ag88
asVricochetin
p7405
(lp7406
g68
ag24
ag25
ag4
ag116
ag23
ag3
ag24
ag22
asVduct
p7407
(lp7408
g5
ag75
ag25
ag3
asVparents
p7409
(lp7410
g42
aVe@
p7411
ag68
ag4
ag22
ag3
ag40
asVcrying
p7412
(lp7413
g25
ag68
aVaI
p7414
ag24
ag50
asVsnap
p7415
(lp7416
g40
ag22
ag20
ag42
asVballots
p7417
(lp7418
g74
ag20
ag29
ag4
ag3
ag40
asVlurkin
p7419
(lp7420
g29
aV3:
p7421
ag25
ag24
ag22
asVeightys
p7422
(lp7423
VeI
p7424
ag3
ag76
ag7
asVsurprised
p7425
(lp7426
g40
ag88
ag42
ag68
aVaI
p7427
ag7
ag5
asVwobblin
p7428
(lp7429
g101
ag164
ag74
ag29
ag24
ag22
asVemergency
p7430
(lp7431
VI2
p7432
ag19
aV3:
p7433
aVdZ
p7434
ag4
ag22
ag40
ag76
asVbig
p7435
(lp7436
g74
ag24
ag21
asVcouple
p7437
(lp7438
g25
ag75
ag42
aV@L
p7439
asVsittin
p7440
(lp7441
g40
ag24
ag3
ag24
ag22
asVunlimited
p7442
(lp7443
g75
ag22
ag29
ag24
ag19
ag24
ag3
aVI2
p7444
ag5
asVlovin
p7445
(lp7446
g29
ag75
ag131
ag24
ag22
asVgame
p7447
(lp7448
g21
aVeI
p7449
ag19
asVbiz
p7450
(lp7451
g74
ag24
ag7
asVclout
p7452
(lp7453
g25
ag29
aVaU
p7454
ag3
asVwiser
p7455
(lp7456
g101
aVaI
p7457
ag7
ag88
asVagreeance
p7458
(lp7459
Va#
p7460
ag21
ag68
aVi:
p7461
ag12
ag4
ag22
ag40
asVtowel
p7462
(lp7463
g3
aVaU
p7464
aV@L
p7465
asVbit
p7466
(lp7467
g74
ag24
ag3
asVwings
p7468
(lp7469
g101
ag24
ag50
ag7
asVrichie
p7470
(lp7471
g68
ag24
aVtS
p7472
ag76
asVadams
p7473
(lp7474
g20
ag5
ag4
ag19
ag7
asVknock
p7475
(lp7476
g22
ag164
ag25
asVsemi
p7477
(lp7478
g40
ag23
ag19
ag76
asVceelo
p7479
(lp7480
g40
aVi:
p7481
ag29
aVoU
p7482
asVsystematically
p7483
(lp7484
g40
ag24
ag40
ag3
ag4
ag19
ag20
ag3
ag24
ag25
ag29
ag76
asVmessage
p7485
(lp7486
g19
ag23
ag40
aVI2
p7487
aVdZ
p7488
asVdrippin
p7489
(lp7490
g5
ag68
ag24
ag42
ag24
ag22
asVcollect
p7491
(lp7492
g25
ag4
ag29
ag23
ag25
ag3
asVyorker
p7493
(lp7494
g32
aVO@
p7495
ag25
ag88
asVpopular
p7496
(lp7497
g42
ag164
ag42
ag32
ag141
ag29
ag88
asVpuffed
p7498
(lp7499
g42
ag75
ag36
ag3
asVhealthy
p7500
(lp7501
g49
ag23
ag29
ag103
ag76
asVharlem
p7502
(lp7503
g49
aVA@
p7504
ag29
ag4
ag19
asVwaitin
p7505
(lp7506
g101
aVeI
p7507
ag3
ag24
ag22
asVoften
p7508
(lp7509
g164
ag36
ag4
ag22
asVwombs
p7510
(lp7511
g101
aVu:
p7512
ag19
ag7
asVfucking
p7513
(lp7514
g36
ag75
ag25
ag24
ag50
asVfathers
p7515
(lp7516
g36
aVA:
p7517
ag174
ag88
ag7
asVmighta
p7518
(lp7519
g19
aVaI
p7520
ag3
ag4
asVplay
p7521
(lp7522
g42
ag29
aVeI
p7523
asVbounce
p7524
(lp7525
g74
aVaU
p7526
ag22
ag40
asVconey
p7527
(lp7528
g25
ag4
ag22
aVaI
p7529
asVloser
p7530
(lp7531
g29
aVu:
p7532
ag7
ag88
asVengagin
p7533
(lp7534
g23
ag50
ag21
ag20
aVdZ
p7535
ag24
ag22
asVpalm
p7536
(lp7537
g42
aVA:
p7538
ag19
asVclown
p7539
(lp7540
g25
ag29
aVaU
p7541
ag22
asVsight
p7542
(lp7543
g40
aVaI
p7544
ag3
asVmirror
p7545
(lp7546
g19
ag24
ag68
ag88
asVsprint
p7547
(lp7548
g40
ag42
ag68
ag24
ag22
ag3
asVwesson
p7549
(lp7550
g101
ag23
ag40
ag4
ag22
asVcocacola
p7551
(lp7552
g25
ag164
ag25
aVa#
p7553
ag25
aVoU
p7554
ag29
ag4
asVsavage
p7555
(lp7556
g40
ag20
ag131
aVI2
p7557
aVdZ
p7558
asVchumps
p7559
(lp7560
VtS
p7561
ag75
ag19
ag42
ag40
asVsheen
p7562
(lp7563
g116
aVi:
p7564
ag22
asVcapillaries
p7565
(lp7566
g25
ag20
ag42
ag24
ag29
ag4
ag68
ag76
ag7
asVpet
p7567
(lp7568
g42
ag23
ag3
asVdecision
p7569
(lp7570
g5
aVI2
p7571
ag40
ag24
ag46
ag4
ag22
asVlepers
p7572
(lp7573
g29
ag23
ag42
ag88
ag7
asVpros
p7574
(lp7575
g42
ag68
aVoU
p7576
ag7
asVcrisis
p7577
(lp7578
g25
ag68
aVaI
p7579
ag40
ag24
ag40
asVreligion
p7580
(lp7581
g68
aVI2
p7582
ag29
ag24
aVdZ
p7583
ag4
ag22
asVpen
p7584
(lp7585
g42
ag23
ag22
asVslash
p7586
(lp7587
g40
ag29
ag20
ag116
asVviolatin
p7588
(lp7589
g131
aVaI@
p7590
ag29
aVa#
p7591
ag3
ag24
ag22
asVfragments
p7592
(lp7593
g36
ag68
ag20
ag21
ag19
ag4
ag22
ag3
ag40
asVlime
p7594
(lp7595
g29
aVaI
p7596
ag19
asVrappers
p7597
(lp7598
g68
ag20
ag42
ag88
ag7
asVfopound
p7599
(lp7600
g36
ag164
ag42
aVaU
p7601
ag22
ag5
asVshooters
p7602
(lp7603
g116
aVu:
p7604
ag3
ag88
ag7
asVflavors
p7605
(lp7606
g36
ag29
aVeI
p7607
ag131
ag88
ag7
asVsixteen
p7608
(lp7609
g40
ag24
ag25
ag40
ag3
aVi:
p7610
ag22
asVrun
p7611
(lp7612
g68
ag75
ag22
asVnitti
p7613
(lp7614
g22
ag24
ag3
ag76
asVstoppin
p7615
(lp7616
g40
ag3
ag164
ag42
ag24
ag22
asVrum
p7617
(lp7618
g68
ag75
ag19
asVremembered
p7619
(lp7620
g68
aVI2
p7621
ag19
ag23
ag19
ag74
ag88
ag5
asVbm
p7622
(lp7623
g74
aVi:
p7624
ag12
ag23
ag19
asVodor
p7625
(lp7626
VoU
p7627
ag5
ag88
asVarraign
p7628
(lp7629
Va#
p7630
ag68
aVeI
p7631
ag22
asVlaker
p7632
(lp7633
g29
aVeI
p7634
ag25
ag88
asVslowfast
p7635
(lp7636
g40
ag29
aVoU
p7637
ag36
aVaa
p7638
ag40
ag3
asVvestibules
p7639
(lp7640
g131
ag23
ag40
ag3
ag24
ag74
ag32
aVu:
p7641
ag29
ag7
asVfeelings
p7642
(lp7643
g36
aVi:
p7644
ag29
ag24
ag50
ag7
asVstep
p7645
(lp7646
g40
ag3
ag23
ag42
asVnowhere
p7647
(lp7648
g22
aVoU
p7649
ag101
aVe@
p7650
asVkingpin
p7651
(lp7652
g25
ag24
ag50
ag42
ag24
ag22
asVbecome
p7653
(lp7654
g74
ag24
ag25
ag75
ag19
asVfrom
p7655
(lp7656
g36
ag68
ag164
ag19
asVsmothered
p7657
(lp7658
g40
ag19
ag75
ag174
ag88
ag5
asVby
p7659
(lp7660
g74
aVaI
p7661
asVshine
p7662
(lp7663
g116
aVaI
p7664
ag22
asVshinobi
p7665
(lp7666
g116
ag24
ag22
aVoU
p7667
ag74
aVaI
p7668
asVworking
p7669
(lp7670
g101
aV3:
p7671
ag25
ag24
ag50
asVwouldnt
p7672
(lp7673
g101
ag141
ag5
ag22
ag3
asVwore
p7674
(lp7675
g101
aVo@
p7676
asVsearchin
p7677
(lp7678
g40
aV3:
p7679
aVtS
p7680
ag24
ag22
asVsurrender
p7681
(lp7682
g40
ag88
ag68
ag23
ag22
ag5
ag88
asVdamato
p7683
(lp7684
g5
ag20
ag19
aVA:
p7685
ag3
aVoU
p7686
asVwrinkles
p7687
(lp7688
g68
ag24
ag50
ag25
aV@L
p7689
ag7
asVdrama
p7690
(lp7691
g5
ag68
aVA:
p7692
ag19
ag4
asVrange
p7693
(lp7694
g68
aVeI
p7695
ag22
aVdZ
p7696
asVounce
p7697
(lp7698
VaU
p7699
ag22
ag40
asVwanna
p7700
(lp7701
g101
ag164
ag22
ag4
asVgamma
p7702
(lp7703
g21
ag20
ag19
ag4
asVseeing
p7704
(lp7705
g40
aVi:
p7706
ag12
ag24
ag50
asVdangle
p7707
(lp7708
g5
ag20
ag50
ag21
aV@L
p7709
asVblooddrops
p7710
(lp7711
g74
ag29
ag75
ag5
ag68
ag164
ag42
ag40
asVhaps
p7712
(lp7713
g49
ag20
ag42
ag40
asVmommy
p7714
(lp7715
g19
ag164
ag19
ag76
asVscripts
p7716
(lp7717
g40
ag25
ag68
ag24
ag42
ag3
ag40
asVusa
p7718
(lp7719
g32
aVu:
p7720
ag23
ag40
aVeI
p7721
asVmomma
p7722
(lp7723
g19
ag164
ag19
ag4
asVbecause
p7724
(lp7725
g74
ag24
ag25
ag164
ag7
asVfrog
p7726
(lp7727
g36
ag68
ag164
ag21
asVfallin
p7728
(lp7729
g36
aVO:
p7730
ag29
aVI2
p7731
ag22
asVlebron
p7732
(lp7733
g29
ag23
ag74
ag68
ag164
ag22
asVbezel
p7734
(lp7735
g74
ag23
ag7
aV@L
p7736
asVrows
p7737
(lp7738
g68
aVoU
p7739
ag7
asVgoin
p7740
(lp7741
g21
aVoU
p7742
aVI2
p7743
ag22
asVspam
p7744
(lp7745
g40
ag42
ag20
ag19
asVbeers
p7746
(lp7747
g74
aVi@3
p7748
ag7
asVapartments
p7749
(lp7750
Va#
p7751
ag42
aVA@
p7752
ag3
ag19
ag4
ag22
ag3
ag40
asVquestion
p7753
(lp7754
g25
ag101
ag23
ag40
aVtS
p7755
ag4
ag22
asVsneaks
p7756
(lp7757
g40
ag22
aVi:
p7758
ag25
ag40
asVlong
p7759
(lp7760
g29
ag164
ag50
asVbaggy
p7761
(lp7762
g74
ag20
ag21
ag76
asVcommittin
p7763
(lp7764
g25
ag4
ag19
ag24
ag3
ag24
ag22
asVholy
p7765
(lp7766
g49
aVoU
p7767
ag29
ag76
asVsuit
p7768
(lp7769
g40
aVu:
p7770
ag3
asVforward
p7771
(lp7772
g36
aVO@
p7773
ag101
ag88
ag5
asVlexo
p7774
(lp7775
g29
aVi:
p7776
ag25
ag40
aVoU
p7777
asVscared
p7778
(lp7779
g40
ag25
aVe@
p7780
ag5
asVfiles
p7781
(lp7782
g36
aVaI
p7783
ag29
ag7
asVmountains
p7784
(lp7785
g19
aVaU
p7786
ag22
ag3
ag24
ag22
ag7
asVharem
p7787
(lp7788
g49
aVA:
p7789
ag68
aVi:
p7790
ag19
asVjacks
p7791
(lp7792
VdZ
p7793
ag20
ag25
ag40
asVvehicle
p7794
(lp7795
g131
aVi@
p7796
ag25
aV@L
p7797
asVtrois
p7798
(lp7799
g3
ag101
aVA:
p7800
asVslums
p7801
(lp7802
g40
ag29
ag75
ag19
ag7
asVcopped
p7803
(lp7804
g25
ag164
ag42
ag3
asVconsiderably
p7805
(lp7806
g25
ag4
ag22
ag40
ag24
ag5
ag88
ag68
ag12
ag4
ag74
ag29
ag76
asVproperly
p7807
(lp7808
g42
ag68
ag164
ag42
ag88
ag29
ag76
asVatlantic
p7809
(lp7810
Va#
p7811
ag3
ag29
aVaa
p7812
ag22
ag3
ag24
ag25
asVhopes
p7813
(lp7814
g49
aVoU
p7815
ag42
ag40
asVline
p7816
(lp7817
g29
aVaI
p7818
ag22
asVintestines
p7819
(lp7820
VI2
p7821
ag22
ag3
ag23
ag40
ag3
aVI2
p7822
ag22
ag7
asVbiggie
p7823
(lp7824
g74
ag24
ag21
ag76
asVbumpers
p7825
(lp7826
g74
ag75
ag19
ag42
ag88
ag7
asVeighteen
p7827
(lp7828
VeI
p7829
ag3
aVi:
p7830
ag22
asVup
p7831
(lp7832
g75
ag42
asVus
p7833
(lp7834
g75
ag40
asVplanet
p7835
(lp7836
g42
ag29
ag20
ag22
aVI2
p7837
ag3
asVwindows
p7838
(lp7839
g101
ag24
ag22
ag5
aVoU
p7840
ag7
asVdiagrams
p7841
(lp7842
g5
aVaI
p7843
ag4
ag21
ag68
ag20
ag19
ag7
asVpayola
p7844
(lp7845
g42
aVeI
p7846
aVoU
p7847
ag29
ag4
asVfried
p7848
(lp7849
g36
ag68
aVaI
p7850
ag5
asVcalled
p7851
(lp7852
g25
aVO:
p7853
ag29
ag5
asVfourfives
p7854
(lp7855
g36
aVo@
p7856
ag36
ag24
ag131
ag7
asVuber
p7857
(lp7858
g32
aVu:
p7859
ag74
ag88
asVvibe
p7860
(lp7861
g131
aVaI
p7862
ag74
asVscrapin
p7863
(lp7864
g40
ag25
ag68
ag20
ag42
ag24
ag22
asVstick
p7865
(lp7866
g40
ag3
ag24
ag25
asVstripped
p7867
(lp7868
g40
ag3
ag68
ag24
ag42
ag3
asVelitist
p7869
(lp7870
g24
ag29
aVi:
p7871
ag3
ag24
ag40
ag3
asVhaunt
p7872
(lp7873
g49
aVO:
p7874
ag22
ag3
asVmothafuckin
p7875
(lp7876
g19
ag164
ag103
aVa#
p7877
ag36
ag75
ag25
ag24
ag22
asVinsultin
p7878
(lp7879
g24
ag22
ag40
ag75
ag29
ag3
ag24
ag22
asVcurb
p7880
(lp7881
g25
aV3:
p7882
ag74
asVrally
p7883
(lp7884
g68
ag20
ag29
ag76
asVcurl
p7885
(lp7886
g25
aV3:
p7887
ag29
asVaiyo
p7888
(lp7889
VeI
p7890
ag32
aVoU
p7891
asVcotton
p7892
(lp7893
g25
ag164
ag3
ag4
ag22
asVphantom
p7894
(lp7895
g36
aVaa
p7896
ag22
ag3
ag4
ag19
asVthugs
p7897
(lp7898
g103
ag75
ag21
ag7
asVlemon
p7899
(lp7900
g29
ag23
ag19
ag4
ag22
asVjesus
p7901
(lp7902
VdZ
p7903
aVi:
p7904
ag7
ag4
ag40
asVsunken
p7905
(lp7906
g40
ag75
ag50
ag25
ag4
ag22
asVrains
p7907
(lp7908
g68
aVeI
p7909
ag22
ag7
asVnah
p7910
(lp7911
g22
aVA:
p7912
asVthanks
p7913
(lp7914
g103
ag20
ag50
ag25
ag40
asVbacks
p7915
(lp7916
g74
ag20
ag25
ag40
asVscrape
p7917
(lp7918
g40
ag25
ag68
aVeI
p7919
ag42
asVplugged
p7920
(lp7921
g42
ag29
ag75
ag21
ag5
asVreindeers
p7922
(lp7923
g68
aVeI
p7924
ag22
ag5
aVi@3
p7925
ag7
asVnas
p7926
(lp7927
g22
ag20
ag40
asVyang
p7928
(lp7929
g32
ag20
ag50
asVscraps
p7930
(lp7931
g40
ag25
ag68
ag20
ag42
ag40
asVhova
p7932
(lp7933
g49
aVoU
p7934
ag131
ag4
asVmanhattan
p7935
(lp7936
g19
ag20
ag22
ag49
ag20
ag3
ag4
ag22
asVnice
p7937
(lp7938
g22
aVaI
p7939
ag40
asVdraw
p7940
(lp7941
g5
ag68
aVO:
p7942
asVscrub
p7943
(lp7944
g40
ag25
ag68
ag75
ag74
asVusers
p7945
(lp7946
g32
aVu:
p7947
ag7
ag88
ag7
asVsexin
p7948
(lp7949
g40
ag23
ag25
ag40
ag24
ag22
asVvisits
p7950
(lp7951
g131
ag24
ag7
ag24
ag3
ag40
asVluxurious
p7952
(lp7953
g29
ag75
ag21
ag46
aVU@
p7954
ag68
aVi@
p7955
ag40
asVmeaning
p7956
(lp7957
g19
aVi:
p7958
ag22
ag24
ag50
asVdesert
p7959
(lp7960
g5
ag23
ag7
ag88
ag3
asVpaps
p7961
(lp7962
g42
ag20
ag42
ag40
asVrisin
p7963
(lp7964
g68
ag24
ag40
ag24
ag22
asVkibbles
p7965
(lp7966
g25
ag24
ag74
aV@L
p7967
ag7
asVfighter
p7968
(lp7969
g36
aVaI
p7970
ag3
ag88
asVwafer
p7971
(lp7972
g101
aVeI
p7973
ag36
ag88
asVfurcoats
p7974
(lp7975
g36
aV3:
p7976
ag25
aVoU
p7977
ag3
ag40
asVage
p7978
(lp7979
VeI
p7980
aVdZ
p7981
asVholes
p7982
(lp7983
g49
aVoU
p7984
ag29
ag7
asVcooked
p7985
(lp7986
g25
ag141
ag25
ag3
asVhonkajonk
p7987
(lp7988
g49
ag164
ag50
ag25
aVa#
p7989
aVdZ
p7990
ag164
ag50
ag25
asVheats
p7991
(lp7992
g49
aVi:
p7993
ag3
ag40
asVdot
p7994
(lp7995
g5
ag164
ag3
asVbroad
p7996
(lp7997
g74
ag68
aVO:
p7998
ag5
asVfar
p7999
(lp8000
g36
aVA@
p8001
asVfresh
p8002
(lp8003
g36
ag68
ag23
ag116
asVstroller
p8004
(lp8005
g40
ag3
ag68
aVoU
p8006
ag29
ag88
asVonce
p8007
(lp8008
g101
ag75
ag22
ag40
asVsector
p8009
(lp8010
g40
ag23
ag25
ag3
ag88
asVcode
p8011
(lp8012
g25
aVoU
p8013
ag5
asVgs
p8014
(lp8015
VdZ
p8016
aVi:
p8017
ag12
ag23
ag40
asVashamed
p8018
(lp8019
Va#
p8020
ag116
aVeI
p8021
ag19
ag5
asVscratch
p8022
(lp8023
g40
ag25
ag68
ag20
aVtS
p8024
asVresults
p8025
(lp8026
g68
aVI2
p8027
ag7
ag75
ag29
ag3
ag40
asVmines
p8028
(lp8029
g19
aVaI
p8030
ag22
ag7
asVsteve
p8031
(lp8032
g40
ag3
aVi:
p8033
ag131
asVgang
p8034
(lp8035
g21
ag20
ag50
asVgladly
p8036
(lp8037
g21
ag29
ag20
ag5
ag29
ag76
asVgo
p8038
(lp8039
g21
aVoU
p8040
asVsprewell
p8041
(lp8042
g40
ag42
ag68
aVu:
p8043
ag23
ag29
asVchillin
p8044
(lp8045
VtS
p8046
ag24
ag29
aVI2
p8047
ag22
asVissues
p8048
(lp8049
g24
ag116
aVu:
p8050
ag7
asVnypd
p8051
(lp8052
g23
ag22
ag101
aVaI
p8053
ag42
aVi:
p8054
ag5
aVi:
p8055
asVcommas
p8056
(lp8057
g25
ag164
ag19
ag4
ag7
asVconcerned
p8058
(lp8059
g25
ag4
ag22
ag40
aV3:
p8060
ag22
ag5
asVdames
p8061
(lp8062
g5
aVeI
p8063
ag19
ag7
asVyoung
p8064
(lp8065
g32
ag75
ag50
asVsend
p8066
(lp8067
g40
ag23
ag22
ag5
asVsuits
p8068
(lp8069
g40
aVu:
p8070
ag3
ag40
asVshack
p8071
(lp8072
g116
ag20
ag25
asVcradle
p8073
(lp8074
g25
ag68
aVeI
p8075
ag5
aV@L
p8076
asVsqueezing
p8077
(lp8078
g40
ag25
ag101
aVi:
p8079
ag7
ag24
ag50
asVblaze
p8080
(lp8081
g74
ag29
aVeI
p8082
ag7
asVstable
p8083
(lp8084
g40
ag3
aVeI
p8085
ag74
aV@L
p8086
asVexit
p8087
(lp8088
g23
ag21
ag7
ag24
ag3
asVitking
p8089
(lp8090
g24
ag3
ag25
ag24
ag50
asVwaiters
p8091
(lp8092
g101
aVeI
p8093
ag3
ag88
ag7
asVwetted
p8094
(lp8095
g101
ag23
ag3
aVI2
p8096
ag5
asVmuzzles
p8097
(lp8098
g19
ag75
ag7
aV@L
p8099
ag7
asVretire
p8100
(lp8101
g68
aVI2
p8102
ag3
aVaI@
p8103
asVgarden
p8104
(lp8105
g21
aVA@
p8106
ag5
ag4
ag22
asVpopo
p8107
(lp8108
g42
aVoU
p8109
ag42
aVoU
p8110
asVrhyme
p8111
(lp8112
g68
aVaI
p8113
ag19
asVminers
p8114
(lp8115
g19
aVaI
p8116
ag22
ag88
ag7
asVwave
p8117
(lp8118
g101
aVeI
p8119
ag131
asVwishes
p8120
(lp8121
g101
ag24
ag116
aVI2
p8122
ag7
asVbosses
p8123
(lp8124
g74
ag164
ag40
aVI2
p8125
ag7
asVmixing
p8126
(lp8127
g19
ag24
ag25
ag40
ag24
ag50
asVprecinct
p8128
(lp8129
g42
ag68
aVi:
p8130
ag40
ag24
ag50
ag25
ag3
asVchammy
p8131
(lp8132
VtS
p8133
ag20
ag19
ag76
asVcharentes
p8134
(lp8135
VtS
p8136
ag20
ag68
ag23
ag22
ag3
ag40
asVtimely
p8137
(lp8138
g3
aVaI
p8139
ag19
ag29
ag76
asVmagic
p8140
(lp8141
g19
ag20
aVdZ
p8142
ag24
ag25
asVharbor
p8143
(lp8144
g49
aVA@
p8145
ag74
ag88
asVbutton
p8146
(lp8147
g74
ag75
ag3
ag4
ag22
asVgettin
p8148
(lp8149
g21
ag23
ag3
ag24
ag22
asVgrand
p8150
(lp8151
g21
ag68
ag20
ag22
ag5
asVdeals
p8152
(lp8153
g5
aVi:
p8154
ag29
ag7
asVrace
p8155
(lp8156
g68
aVeI
p8157
ag40
asVblurry
p8158
(lp8159
g74
ag29
aV3:
p8160
ag68
ag76
asVheineken
p8161
(lp8162
g49
aVaI
p8163
ag22
ag23
ag25
ag4
ag22
asVmelodies
p8164
(lp8165
g19
ag23
ag29
ag4
ag5
ag76
ag7
asVrefer
p8166
(lp8167
g68
aVI2
p8168
ag36
aV3:
p8169
asVenforce
p8170
(lp8171
g23
ag22
ag36
aVo@
p8172
ag40
asVdimes
p8173
(lp8174
g5
aVaI
p8175
ag19
ag7
asVsmaller
p8176
(lp8177
g40
ag19
aVO:
p8178
ag29
ag88
asVflashlights
p8179
(lp8180
g36
ag29
ag20
ag116
ag29
aVaI
p8181
ag3
ag40
asVcds
p8182
(lp8183
g40
aVi:
p8184
ag5
aVi:
p8185
ag12
ag23
ag40
asVwrestling
p8186
(lp8187
g68
ag23
ag40
aV@L
p8188
aVI2
p8189
ag50
asVfrigid
p8190
(lp8191
g36
ag68
ag24
aVdZ
p8192
ag24
ag5
asVjump
p8193
(lp8194
VdZ
p8195
ag75
ag19
ag42
asVfold
p8196
(lp8197
g36
aVoU
p8198
ag29
ag5
asVnoise
p8199
(lp8200
g22
aVOI
p8201
ag7
asVbooth
p8202
(lp8203
g74
aVu:
p8204
ag103
asVpajamas
p8205
(lp8206
g42
aVa#
p8207
aVdZ
p8208
aVA:
p8209
ag19
ag4
ag7
asVclick
p8210
(lp8211
g25
ag29
ag24
ag25
asVsweats
p8212
(lp8213
g40
ag101
ag23
ag3
ag40
asVchicago
p8214
(lp8215
g116
aVI2
p8216
ag25
aVA:
p8217
ag21
aVoU
p8218
asVsqueeze
p8219
(lp8220
g40
ag25
ag101
aVi:
p8221
ag7
asVsables
p8222
(lp8223
g40
aVeI
p8224
ag74
aV@L
p8225
ag7
asVvampire
p8226
(lp8227
g131
ag20
ag19
ag42
aVaI@
p8228
asVcell
p8229
(lp8230
g40
ag23
ag29
asVrotten
p8231
(lp8232
g68
ag164
ag3
ag4
ag22
asVindian
p8233
(lp8234
g24
ag22
ag5
aVi@
p8235
ag22
asVplaya
p8236
(lp8237
g42
ag29
aVaI@
p8238
asVattire
p8239
(lp8240
Va#
p8241
ag3
aVaI@
p8242
asVpristine
p8243
(lp8244
g42
ag68
ag24
ag40
ag3
aVi:
p8245
ag22
asVcollins
p8246
(lp8247
g25
ag164
ag29
aVI2
p8248
ag22
ag7
asVschoolboys
p8249
(lp8250
g40
ag25
aVu:
p8251
ag29
ag74
aVOI
p8252
ag7
asVlab
p8253
(lp8254
g29
ag20
ag74
asVorder
p8255
(lp8256
VO@
p8257
ag5
ag88
asVbody
p8258
(lp8259
g74
ag164
ag5
ag76
asVcaper
p8260
(lp8261
g25
aVeI
p8262
ag42
ag88
asVchose
p8263
(lp8264
VtS
p8265
aVoU
p8266
ag7
asVdegree
p8267
(lp8268
g5
aVI2
p8269
ag21
ag68
aVi:
p8270
asVpushing
p8271
(lp8272
g42
ag141
ag116
ag24
ag50
asVbozos
p8273
(lp8274
g74
aVoU
p8275
ag7
aVoU
p8276
ag7
asVlet
p8277
(lp8278
g29
ag23
ag3
asVozs
p8279
(lp8280
g164
ag7
ag7
asVlyrically
p8281
(lp8282
g29
ag24
ag68
ag24
ag25
ag29
ag76
asVthuggin
p8283
(lp8284
g103
ag75
ag21
ag24
ag22
asVlex
p8285
(lp8286
g29
ag23
ag25
ag40
asVsexy
p8287
(lp8288
g40
ag23
ag25
ag40
ag76
asVfifteen
p8289
(lp8290
g36
ag24
ag36
ag3
aVi:
p8291
ag22
asVkidnapped
p8292
(lp8293
g25
ag24
ag5
ag22
ag20
ag42
ag3
asVsayin
p8294
(lp8295
g40
aVeI
p8296
ag24
ag22
asVgreat
p8297
(lp8298
g21
ag68
aVeI
p8299
ag3
asVnorthern
p8300
(lp8301
g22
aVO@
p8302
ag174
ag88
ag22
asVtizdale
p8303
(lp8304
g3
ag24
ag7
ag5
aVeI
p8305
ag29
asVacross
p8306
(lp8307
g4
ag25
ag68
ag164
ag40
asVpeasants
p8308
(lp8309
g42
ag23
ag7
ag4
ag22
ag3
ag40
asVshades
p8310
(lp8311
g116
aVeI
p8312
ag5
ag7
asVleaving
p8313
(lp8314
g29
aVi:
p8315
ag131
ag24
ag50
asVeatin
p8316
(lp8317
Vi:
p8318
ag3
ag24
ag22
asVtoolll
p8319
(lp8320
g3
aVu:
p8321
ag29
aV@L
p8322
asVxseven
p8323
(lp8324
g23
ag25
ag40
ag40
ag23
ag131
ag4
ag22
asVcrackshacks
p8325
(lp8326
g25
ag68
ag20
ag25
ag116
ag20
ag25
ag40
asVmakes
p8327
(lp8328
g19
aVeI
p8329
ag25
ag40
asVthats
p8330
(lp8331
g174
ag20
ag3
ag40
asVwig
p8332
(lp8333
g101
ag24
ag21
asVscale
p8334
(lp8335
g40
ag25
aVeI
p8336
ag29
asVschoolyard
p8337
(lp8338
g40
ag25
aVu:
p8339
ag29
ag32
aVA@
p8340
ag5
asVblizzard
p8341
(lp8342
g74
ag29
ag24
ag7
ag88
ag5
asVscales
p8343
(lp8344
g40
ag25
aVeI
p8345
ag29
ag7
asVegypt
p8346
(lp8347
Vi:
p8348
aVdZ
p8349
ag24
ag42
ag3
asVwin
p8350
(lp8351
g101
ag24
ag22
asVlimp
p8352
(lp8353
g29
ag24
ag19
ag42
asVmanage
p8354
(lp8355
g19
ag20
ag22
aVI2
p8356
aVdZ
p8357
asVprivate
p8358
(lp8359
g42
ag68
aVaI
p8360
ag131
ag4
ag3
asVexpect
p8361
(lp8362
g23
ag25
ag40
ag42
ag23
ag25
ag3
asVparaphernalia
p8363
(lp8364
g42
ag20
ag68
ag4
ag36
ag88
ag22
aVeI
p8365
ag29
aVi@
p8366
asVwit
p8367
(lp8368
g101
ag24
ag3
asVnames
p8369
(lp8370
g22
aVeI
p8371
ag19
ag7
asVduck
p8372
(lp8373
g5
ag75
ag25
asVpatrol
p8374
(lp8375
g42
aVa#
p8376
ag3
ag68
aVoU
p8377
ag29
asVape
p8378
(lp8379
VeI
p8380
ag42
asVstanding
p8381
(lp8382
g40
ag3
ag20
ag22
ag5
ag24
ag50
asVstrapped
p8383
(lp8384
g40
ag3
ag68
ag20
ag42
ag3
asVtailor
p8385
(lp8386
g3
aVeI
p8387
ag29
ag88
asVfeel
p8388
(lp8389
g36
aVi:
p8390
ag29
asVcrap
p8391
(lp8392
g25
ag68
ag20
ag42
asVscorchin
p8393
(lp8394
g40
ag25
aVo@
p8395
ag25
ag24
ag22
asVzip
p8396
(lp8397
g7
ag24
ag42
asVillegal
p8398
(lp8399
g24
ag29
aVi:
p8400
ag21
aV@L
p8401
asVjammy
p8402
(lp8403
VdZ
p8404
ag20
ag19
ag76
asVrackets
p8405
(lp8406
g68
ag20
ag25
aVI2
p8407
ag3
ag40
asVnext
p8408
(lp8409
g22
ag23
ag25
ag40
ag3
asVeleven
p8410
(lp8411
VI2
p8412
ag29
ag23
ag131
ag4
ag22
asVdoubt
p8413
(lp8414
g5
aVaU
p8415
ag3
asVsave
p8416
(lp8417
g40
aVeI
p8418
ag131
asVeagles
p8419
(lp8420
Vi:
p8421
ag21
aV@L
p8422
ag7
asVhug
p8423
(lp8424
g49
ag75
ag21
asVforefathers
p8425
(lp8426
g36
aVO@
p8427
ag36
aVA:
p8428
ag174
ag88
ag7
asVsort
p8429
(lp8430
g40
aVO@
p8431
ag3
asVpopped
p8432
(lp8433
g42
ag164
ag42
ag3
asVbiblical
p8434
(lp8435
g74
ag24
ag74
ag29
ag24
ag25
aV@L
p8436
asVstarted
p8437
(lp8438
g40
ag3
aVA@
p8439
ag3
aVI2
p8440
ag5
asVsnowflake
p8441
(lp8442
g40
ag22
aVoU
p8443
ag36
ag29
aVeI
p8444
ag25
asVinclined
p8445
(lp8446
g24
ag50
ag25
ag29
aVaI
p8447
ag22
ag5
asVjada
p8448
(lp8449
VdZ
p8450
aVA:
p8451
ag5
ag4
asVoccurred
p8452
(lp8453
g4
ag25
aV3:
p8454
ag5
asVfuck
p8455
(lp8456
g36
ag75
ag25
asVtrain
p8457
(lp8458
g3
ag68
aVeI
p8459
ag22
asVlosin
p8460
(lp8461
g29
ag164
ag40
ag24
ag22
asVbaby
p8462
(lp8463
g74
aVeI
p8464
ag74
ag76
asVrare
p8465
(lp8466
g68
aVe@
p8467
asVbackstrokes
p8468
(lp8469
g74
ag20
ag25
ag40
ag3
ag68
aVoU
p8470
ag25
ag40
asVwomen
p8471
(lp8472
g101
ag24
ag19
ag24
ag22
asVwearin
p8473
(lp8474
g101
aVe@
p8475
ag68
ag24
ag22
asVthis
p8476
(lp8477
g174
ag24
ag40
asVride
p8478
(lp8479
g68
aVaI
p8480
ag5
asVclients
p8481
(lp8482
g25
ag29
aVaI@
p8483
ag22
ag3
ag40
asVpour
p8484
(lp8485
g42
aVo@
p8486
asVshoulda
p8487
(lp8488
g116
ag141
ag5
ag4
asVdodgin
p8489
(lp8490
g5
ag164
aVdZ
p8491
ag24
ag22
asVobvious
p8492
(lp8493
g164
ag74
ag131
aVi@
p8494
ag40
asVthin
p8495
(lp8496
g103
ag24
ag22
asVdrill
p8497
(lp8498
g5
ag68
ag24
ag29
asVgunshots
p8499
(lp8500
g21
ag75
ag22
ag116
ag164
ag3
ag40
asVaight
p8501
(lp8502
VeI
p8503
ag3
asVposing
p8504
(lp8505
g42
aVoU
p8506
ag7
ag24
ag50
asVcorpse
p8507
(lp8508
g25
aVO@
p8509
ag42
ag40
asVdidnt
p8510
(lp8511
g5
ag24
ag5
ag22
ag3
asVcoffin
p8512
(lp8513
g25
ag164
ag36
ag24
ag22
asVsomething
p8514
(lp8515
g40
ag75
ag19
ag103
ag24
ag50
asVtat
p8516
(lp8517
g3
ag20
ag3
asVgiants
p8518
(lp8519
VdZ
p8520
aVaI
p8521
ag4
ag22
ag3
ag40
asVtap
p8522
(lp8523
g3
ag20
ag42
asVbent
p8524
(lp8525
g74
ag23
ag22
ag3
asVlinks
p8526
(lp8527
g29
ag24
ag50
ag25
ag40
asVplate
p8528
(lp8529
g42
ag29
aVeI
p8530
ag3
asVbenz
p8531
(lp8532
g74
ag23
ag22
ag3
ag40
asVtax
p8533
(lp8534
g3
ag20
ag25
ag40
asVpieces
p8535
(lp8536
g42
aVi:
p8537
ag40
aVI2
p8538
ag7
asVhigh
p8539
(lp8540
g49
aVaI
p8541
asVvillain
p8542
(lp8543
g131
ag24
ag29
ag4
ag22
asVhis
p8544
(lp8545
g49
ag24
ag7
asVpulling
p8546
(lp8547
g42
ag141
ag29
ag24
ag50
asVbend
p8548
(lp8549
g74
ag23
ag22
ag5
asVslip
p8550
(lp8551
g40
ag29
ag24
ag42
asVbones
p8552
(lp8553
g74
aVoU
p8554
ag22
ag7
asVstories
p8555
(lp8556
g40
ag3
aVo@
p8557
ag68
ag76
ag7
asVtan
p8558
(lp8559
g3
ag20
ag22
asVshrimp
p8560
(lp8561
g116
ag68
ag24
ag19
ag42
asVskirt
p8562
(lp8563
g40
ag25
aV3:
p8564
ag3
asVdeader
p8565
(lp8566
g5
ag23
ag5
ag88
asVhesitate
p8567
(lp8568
g49
ag23
ag7
aVI2
p8569
ag3
aVeI
p8570
ag3
asVsurrounded
p8571
(lp8572
g40
ag88
ag68
aVaU
p8573
ag22
ag5
aVI2
p8574
ag5
asVdemocracy
p8575
(lp8576
g5
aVI2
p8577
ag19
ag164
ag25
ag68
ag4
ag40
ag76
asVwhips
p8578
(lp8579
g101
ag24
ag42
ag40
asVdinners
p8580
(lp8581
g5
ag24
ag22
ag88
ag7
asVfitteds
p8582
(lp8583
g36
ag24
ag3
aVI2
p8584
ag5
ag7
asVsix
p8585
(lp8586
g40
ag24
ag25
ag40
asVparlour
p8587
(lp8588
g42
aVA@
p8589
ag29
ag88
asVfortunate
p8590
(lp8591
g36
aVO@
p8592
aVtS
p8593
ag4
ag22
ag4
ag3
asVlamp
p8594
(lp8595
g29
ag20
ag19
ag42
asVwinners
p8596
(lp8597
g101
ag24
ag22
ag88
ag7
asVpair
p8598
(lp8599
g42
aVe@
p8600
asVinstead
p8601
(lp8602
g24
ag22
ag40
ag3
ag23
ag5
asVdoublebarrel
p8603
(lp8604
g5
ag75
ag74
aV@L
p8605
ag74
ag20
ag68
aV@L
p8606
asVintelligent
p8607
(lp8608
g24
ag22
ag3
ag23
ag29
ag24
aVdZ
p8609
ag4
ag22
ag3
asVsin
p8610
(lp8611
g40
ag24
ag22
asVstock
p8612
(lp8613
g40
ag3
ag164
ag25
asVluciano
p8614
(lp8615
g29
aVu:
p8616
aVtS
p8617
aVA:
p8618
ag22
aVoU
p8619
asVblocks
p8620
(lp8621
g74
ag29
ag164
ag25
ag40
asVlocked
p8622
(lp8623
g29
ag164
ag25
ag3
asVact
p8624
(lp8625
g20
ag25
ag3
asVpumas
p8626
(lp8627
g42
aVu:
p8628
ag19
ag4
ag7
asVjiffy
p8629
(lp8630
VdZ
p8631
ag24
ag36
ag76
asVgraveyards
p8632
(lp8633
g21
ag68
aVeI
p8634
ag131
ag32
aVA@
p8635
ag5
ag7
asVfetched
p8636
(lp8637
g36
ag23
aVtS
p8638
ag3
asVatrapped
p8639
(lp8640
g20
ag3
ag68
ag20
ag42
ag3
asVcabbage
p8641
(lp8642
g25
ag20
ag74
aVI2
p8643
aVdZ
p8644
asVappetizer
p8645
(lp8646
g20
ag42
aVI2
p8647
ag3
aVaI
p8648
ag7
ag88
asVupstate
p8649
(lp8650
g75
ag42
ag40
ag3
aVeI
p8651
ag3
asVpocket
p8652
(lp8653
g42
ag164
ag25
aVI2
p8654
ag3
asVassassin
p8655
(lp8656
Va#
p8657
ag40
ag20
ag40
ag24
ag22
asVobjected
p8658
(lp8659
g164
ag74
aVdZ
p8660
ag23
ag25
ag3
aVI2
p8661
ag5
asVlight
p8662
(lp8663
g29
aVaI
p8664
ag3
asVsit
p8665
(lp8666
g40
ag24
ag3
asVshippin
p8667
(lp8668
g116
ag24
ag42
ag24
ag22
asVpiyah
p8669
(lp8670
g42
ag24
ag32
ag4
asVdeaded
p8671
(lp8672
g5
ag23
ag5
aVI2
p8673
ag5
asVaddiction
p8674
(lp8675
Va#
p8676
ag5
ag24
ag25
ag116
ag4
ag22
asVwildin
p8677
(lp8678
g101
aVaI
p8679
ag29
ag5
ag24
ag22
asVhunnid
p8680
(lp8681
g49
ag75
ag22
ag24
ag5
asVstandin
p8682
(lp8683
g40
ag3
ag20
ag22
ag5
ag24
ag22
asVholds
p8684
(lp8685
g49
aVoU
p8686
ag29
ag5
ag7
asVthigh
p8687
(lp8688
g103
aVaI
p8689
asVpiece
p8690
(lp8691
g42
aVi:
p8692
ag40
asVrippin
p8693
(lp8694
g68
ag24
ag42
ag24
ag22
asVmove
p8695
(lp8696
g19
aVu:
p8697
ag131
asVbrawlin
p8698
(lp8699
g74
ag68
aVO:
p8700
ag29
ag24
ag22
asVcoarse
p8701
(lp8702
g25
aVo@
p8703
ag40
asVspank
p8704
(lp8705
g40
ag42
ag20
ag50
ag25
asVantisthetics
p8706
(lp8707
g20
ag22
ag3
ag24
ag40
ag103
ag23
ag3
ag24
ag25
ag40
asVcostume
p8708
(lp8709
g25
ag164
ag40
ag3
ag32
aVu:
p8710
ag19
asVperfect
p8711
(lp8712
g42
aV3:
p8713
ag36
ag23
ag25
ag3
asVhelicopters
p8714
(lp8715
g49
ag23
ag29
ag24
ag25
ag164
ag42
ag3
ag88
ag7
asVbenjamins
p8716
(lp8717
g74
ag23
ag22
aVdZ
p8718
ag4
ag19
aVI2
p8719
ag22
ag7
asVminks
p8720
(lp8721
g19
ag24
ag50
ag25
ag40
asVla
p8722
(lp8723
g29
ag20
asVperspire
p8724
(lp8725
g42
ag88
ag40
ag42
aVaI@
p8726
asVseashores
p8727
(lp8728
g40
aVi:
p8729
ag116
aVo@
p8730
ag7
asVlabor
p8731
(lp8732
g29
aVeI
p8733
ag74
ag88
asVlv
p8734
(lp8735
g23
ag29
ag131
aVi:
p8736
asVwhites
p8737
(lp8738
g101
aVaI
p8739
ag3
ag40
asVpermanent
p8740
(lp8741
g42
aV3:
p8742
ag19
ag4
ag22
ag4
ag22
ag3
asVrestrain
p8743
(lp8744
g68
aVI2
p8745
ag40
ag3
ag68
aVeI
p8746
ag22
asVls
p8747
(lp8748
g23
ag29
ag23
ag40
asVlatitude
p8749
(lp8750
g29
ag20
ag3
ag24
ag3
ag32
aVu:
p8751
ag5
asVcovered
p8752
(lp8753
g25
ag75
ag131
ag88
ag5
asVholiday
p8754
(lp8755
g49
ag164
ag29
ag24
ag5
aVeI
p8756
asVspot
p8757
(lp8758
g40
ag42
ag164
ag3
asVaccapels
p8759
(lp8760
Va#
p8761
ag25
aVa#
p8762
ag42
ag23
ag29
ag7
asVweber
p8763
(lp8764
g101
ag23
ag74
ag88
asVviolating
p8765
(lp8766
g131
aVaI@
p8767
ag29
aVeI
p8768
ag3
ag24
ag50
asVyoud
p8769
(lp8770
g32
aVaU
p8771
ag5
asVlater
p8772
(lp8773
g29
aVeI
p8774
ag3
ag88
asVpitstop
p8775
(lp8776
g42
ag24
ag3
ag40
ag3
ag164
ag42
asVmaterial
p8777
(lp8778
g19
ag4
ag3
aVi@3
p8779
ag68
ag76
ag12
aV@L
p8780
asVversace
p8781
(lp8782
g131
ag88
ag40
aVA:
p8783
aVtS
p8784
ag76
asVcover
p8785
(lp8786
g25
ag75
ag131
ag88
asVhomocides
p8787
(lp8788
g49
ag164
ag19
ag4
ag40
aVaI
p8789
ag5
ag7
asVcourtroom
p8790
(lp8791
g25
aVo@
p8792
ag3
ag68
aVu:
p8793
ag19
asVstout
p8794
(lp8795
g40
ag3
aVaU
p8796
ag3
asVfingerprint
p8797
(lp8798
g36
ag24
ag50
ag21
ag88
ag42
ag68
ag24
ag22
ag3
asVfront
p8799
(lp8800
g36
ag68
ag75
ag22
ag3
asVcage
p8801
(lp8802
g25
aVeI
p8803
aVdZ
p8804
asVday
p8805
(lp8806
g5
aVeI
p8807
asVpresidential
p8808
(lp8809
g42
ag68
ag23
ag7
ag24
ag5
ag23
ag22
ag116
aV@L
p8810
asVstunts
p8811
(lp8812
g40
ag3
ag75
ag22
ag3
ag40
asVscenic
p8813
(lp8814
g40
aVi:
p8815
ag22
ag24
ag25
asVguard
p8816
(lp8817
g21
aVA@
p8818
ag5
asVmorris
p8819
(lp8820
g19
ag164
ag68
ag24
ag40
asVfiddle
p8821
(lp8822
g36
ag24
ag5
aV@L
p8823
asVgamblin
p8824
(lp8825
g21
ag20
ag19
ag74
ag29
ag24
ag22
asVtruth
p8826
(lp8827
g3
ag68
aVu:
p8828
ag103
asVrising
p8829
(lp8830
g68
aVaI
p8831
ag7
ag24
ag50
asVbills
p8832
(lp8833
g74
ag24
ag29
ag7
asVtray
p8834
(lp8835
g3
ag68
aVeI
p8836
asVfew
p8837
(lp8838
g36
ag32
aVu:
p8839
asVmidchapter
p8840
(lp8841
g19
ag24
ag5
aVtS
p8842
ag20
ag42
ag3
ag88
asVcristal
p8843
(lp8844
g25
ag68
ag24
ag40
ag3
aV@L
p8845
asVdoing
p8846
(lp8847
g5
aVu:
p8848
ag24
ag50
asVstrip
p8849
(lp8850
g40
ag3
ag68
ag24
ag42
asVsergeants
p8851
(lp8852
g40
aVA@
p8853
aVdZ
p8854
ag4
ag22
ag3
ag40
asVknow
p8855
(lp8856
g22
aVoU
p8857
asVsyringe
p8858
(lp8859
g40
aVI2
p8860
ag68
ag24
ag22
aVdZ
p8861
asVremove
p8862
(lp8863
g68
aVI2
p8864
ag19
aVu:
p8865
ag131
asVuptown
p8866
(lp8867
g75
ag42
ag3
aVaU
p8868
ag22
asVour
p8869
(lp8870
VaU
p8871
ag88
asVwitness
p8872
(lp8873
g101
ag24
ag3
ag22
ag4
ag40
asVout
p8874
(lp8875
VaU
p8876
ag3
asVheyy
p8877
(lp8878
g49
aVeI
p8879
ag76
asVcalis
p8880
(lp8881
g25
aVA:
p8882
ag29
ag76
ag7
asVrep
p8883
(lp8884
g68
ag23
ag42
asVstuy
p8885
(lp8886
g40
ag3
aVaI
p8887
asVexmarines
p8888
(lp8889
g23
ag25
ag40
ag19
ag4
ag68
aVi:
p8890
ag22
ag7
asVitchin
p8891
(lp8892
g24
aVtS
p8893
ag24
ag22
asVplayground
p8894
(lp8895
g42
ag29
aVeI
p8896
ag21
ag68
aVaU
p8897
ag22
ag5
asVcause
p8898
(lp8899
g25
aVO:
p8900
ag7
asVmath
p8901
(lp8902
g19
ag20
ag103
asVscampi
p8903
(lp8904
g40
ag25
ag20
ag19
ag42
ag76
asVafford
p8905
(lp8906
Va#
p8907
ag36
aVo@
p8908
ag5
asVfun
p8909
(lp8910
g36
ag75
ag22
asVvila
p8911
(lp8912
g131
aVi:
p8913
ag29
ag4
asVphilosophy
p8914
(lp8915
g36
ag24
ag29
ag164
ag40
ag4
ag36
ag76
asVwiner
p8916
(lp8917
g101
aVaI
p8918
ag22
ag88
asVfrank
p8919
(lp8920
g36
ag68
ag20
ag50
ag25
asVmolly
p8921
(lp8922
g19
ag164
ag29
ag76
asVfourteen
p8923
(lp8924
g36
aVo@
p8925
ag3
aVi:
p8926
ag22
asVheartbreaker
p8927
(lp8928
g49
aVA@
p8929
ag3
ag74
ag68
aVeI
p8930
ag25
ag88
asVshortys
p8931
(lp8932
g116
aVO@
p8933
ag3
ag76
ag7
asVtrends
p8934
(lp8935
g3
ag68
ag23
ag22
ag5
ag7
asVecp
p8936
(lp8937
g23
ag25
ag42
asVbleed
p8938
(lp8939
g74
ag29
aVi:
p8940
ag5
asVdonnas
p8941
(lp8942
g5
ag164
ag22
ag4
ag7
asVscary
p8943
(lp8944
g40
ag25
aVe@
p8945
ag68
ag76
asVsquadron
p8946
(lp8947
g40
ag25
ag101
ag164
ag5
ag68
ag4
ag22
asVyard
p8948
(lp8949
g32
aVA@
p8950
ag5
asg21
(lp8951
VdZ
p8952
aVi:
p8953
asVspill
p8954
(lp8955
g40
ag42
ag24
ag29
asVtrainin
p8956
(lp8957
g3
ag68
aVeI
p8958
ag22
ag24
ag22
asVroute
p8959
(lp8960
g68
aVu:
p8961
ag3
asVshells
p8962
(lp8963
g116
ag23
ag29
ag7
asVbagoons
p8964
(lp8965
g74
ag20
ag21
aVu:
p8966
ag22
ag7
asVdrivin
p8967
(lp8968
g5
ag68
ag24
ag131
ag24
ag22
asVtimes
p8969
(lp8970
g3
aVaI
p8971
ag19
ag7
asVchicken
p8972
(lp8973
VtS
p8974
ag24
ag25
ag24
ag22
asVproduce
p8975
(lp8976
g42
ag68
ag4
ag5
ag32
aVu:
p8977
ag40
asVresumes
p8978
(lp8979
g68
aVI2
p8980
ag7
ag32
aVu:
p8981
ag19
ag7
asVdavis
p8982
(lp8983
g5
aVeI
p8984
ag131
ag24
ag40
asVwrist
p8985
(lp8986
g68
ag24
ag40
ag3
asVhussein
p8987
(lp8988
g49
ag75
ag40
aVi:
p8989
ag22
asVrestaurants
p8990
(lp8991
g68
ag23
ag40
ag3
ag68
ag164
ag22
ag3
ag40
asVsouth
p8992
(lp8993
g40
aVaU
p8994
ag103
asVdesigned
p8995
(lp8996
g5
aVI2
p8997
ag7
aVaI
p8998
ag22
ag5
asVdickin
p8999
(lp9000
g5
ag24
ag25
ag24
ag22
asVmag
p9001
(lp9002
g19
ag20
ag21
asVjewels
p9003
(lp9004
VdZ
p9005
aVu:
p9006
ag4
ag29
ag7
asVblown
p9007
(lp9008
g74
ag29
aVoU
p9009
ag22
asVreloaded
p9010
(lp9011
g68
aVI2
p9012
ag29
aVoU
p9013
ag5
aVI2
p9014
ag5
asVbars
p9015
(lp9016
g74
aVA@
p9017
ag7
asVrelish
p9018
(lp9019
g68
ag23
ag29
aVI2
p9020
ag116
asVecho
p9021
(lp9022
g23
ag25
aVoU
p9023
asVbitch
p9024
(lp9025
g74
ag24
aVtS
p9026
asVblows
p9027
(lp9028
g74
ag29
aVoU
p9029
ag7
asVfella
p9030
(lp9031
g36
ag23
ag29
ag4
asVlacoste
p9032
(lp9033
g29
ag20
ag25
ag164
ag40
ag3
asVdump
p9034
(lp9035
g5
ag75
ag19
ag42
asVnerves
p9036
(lp9037
g22
aV3:
p9038
ag131
ag7
asVbears
p9039
(lp9040
g74
aVe@
p9041
ag7
asVdata
p9042
(lp9043
g5
aVeI
p9044
ag3
ag4
asVdopefiends
p9045
(lp9046
g5
aVoU
p9047
ag42
ag36
aVi:
p9048
ag22
ag5
ag7
asVtheir
p9049
(lp9050
g174
aVe@
p9051
asVattack
p9052
(lp9053
Va#
p9054
ag3
ag20
ag25
asVtwelvea
p9055
(lp9056
g3
ag101
ag23
ag29
ag131
aVi@
p9057
asVforbid
p9058
(lp9059
g36
ag88
ag74
ag24
ag5
asVwrapped
p9060
(lp9061
g68
ag20
ag42
ag3
asVchaser
p9062
(lp9063
VtS
p9064
aVeI
p9065
ag40
ag88
asVnut
p9066
(lp9067
g22
ag75
ag3
asVcondonk
p9068
(lp9069
g25
ag4
ag22
ag5
ag164
ag50
ag25
asVrepping
p9070
(lp9071
g68
ag23
ag42
ag24
ag50
asVshell
p9072
(lp9073
g116
ag23
ag29
asVstomach
p9074
(lp9075
g40
ag3
ag75
ag19
ag4
ag25
asVstars
p9076
(lp9077
g40
ag3
aVA@
p9078
ag7
asVsomethin
p9079
(lp9080
g40
ag75
ag19
ag103
ag24
ag22
asVnobody
p9081
(lp9082
g22
aVoU
p9083
ag74
ag164
ag5
ag76
asVshorty
p9084
(lp9085
g116
aVO@
p9086
ag3
ag76
asVogs
p9087
(lp9088
g164
ag21
ag7
asVbiggest
p9089
(lp9090
g74
ag24
ag21
aVI2
p9091
ag40
ag3
asVblazers
p9092
(lp9093
g74
ag29
aVeI
p9094
ag7
ag88
ag7
asVpotent
p9095
(lp9096
g42
aVoU
p9097
ag3
ag4
ag22
ag3
asVnumber
p9098
(lp9099
g22
ag75
ag19
ag74
ag88
asVsex
p9100
(lp9101
g40
ag23
ag25
ag40
asVhaven
p9102
(lp9103
g49
aVeI
p9104
ag131
ag4
ag22
asVremember
p9105
(lp9106
g68
aVI2
p9107
ag19
ag23
ag19
ag74
ag88
asVsteel
p9108
(lp9109
g40
ag3
aVi:
p9110
ag29
asVcatered
p9111
(lp9112
g25
aVeI
p9113
ag3
ag88
ag5
asVlamborghini
p9114
(lp9115
g29
ag20
ag19
ag74
aVo@
p9116
ag21
aVi:
p9117
ag22
ag24
asVculture
p9118
(lp9119
g25
ag75
ag29
aVtS
p9120
ag88
asVriches
p9121
(lp9122
g68
ag24
aVtS
p9123
aVI2
p9124
ag7
asVlion
p9125
(lp9126
g29
aVaI@
p9127
ag22
asVbed
p9128
(lp9129
g74
ag23
ag5
asVhumped
p9130
(lp9131
g49
ag75
ag19
ag42
ag3
asVpatients
p9132
(lp9133
g42
aVeI
p9134
ag116
ag4
ag22
ag3
ag40
asVtwox
p9135
(lp9136
g3
ag101
ag164
ag25
ag40
asVlover
p9137
(lp9138
g29
ag75
ag131
ag88
asVsiegel
p9139
(lp9140
g40
aVi:
p9141
aVdZ
p9142
aV@L
p9143
asVbet
p9144
(lp9145
g74
ag23
ag3
asVhomeboys
p9146
(lp9147
g49
aVoU
p9148
ag19
ag74
aVOI
p9149
ag7
asVclockin
p9150
(lp9151
g25
ag29
ag164
ag25
ag24
ag22
asVclip
p9152
(lp9153
g25
ag29
ag24
ag42
asVlines
p9154
(lp9155
g29
aVaI
p9156
ag22
ag7
asVseville
p9157
(lp9158
g40
ag4
ag131
ag24
ag29
asVgentle
p9159
(lp9160
VdZ
p9161
ag23
ag22
ag3
aV@L
p9162
asVbuy
p9163
(lp9164
g74
aVaI
p9165
asVcorona
p9166
(lp9167
g25
ag4
ag68
aVoU
p9168
ag22
ag4
asVhave
p9169
(lp9170
g49
ag20
ag131
asVneed
p9171
(lp9172
g22
aVi:
p9173
ag5
asVsky
p9174
(lp9175
g40
ag25
aVaI
p9176
asVborder
p9177
(lp9178
g74
aVo@
p9179
ag5
ag88
asVemptying
p9180
(lp9181
g23
ag19
ag42
ag3
ag76
ag12
ag24
ag50
asVscrew
p9182
(lp9183
g40
ag25
ag68
aVu:
p9184
asVbastard
p9185
(lp9186
g74
aVaa
p9187
ag40
ag3
ag88
ag5
asVangle
p9188
(lp9189
g20
ag50
ag21
aV@L
p9190
asVmil
p9191
(lp9192
g19
ag24
ag29
asVscoop
p9193
(lp9194
g40
ag25
aVu:
p9195
ag42
asVmic
p9196
(lp9197
g19
aVaI
p9198
ag25
asVmills
p9199
(lp9200
g19
ag24
ag29
ag7
asVhangover
p9201
(lp9202
g49
ag20
ag50
ag21
aVoU
p9203
ag131
ag88
asVsinatra
p9204
(lp9205
g40
ag24
ag22
aVA:
p9206
ag3
ag68
ag4
asVbelief
p9207
(lp9208
g74
aVI2
p9209
ag29
aVi:
p9210
ag36
asVmilli
p9211
(lp9212
g19
ag24
ag29
ag24
asVtruck
p9213
(lp9214
g3
ag68
ag75
ag25
asVparka
p9215
(lp9216
g42
aVA@
p9217
ag25
ag4
asVcoke
p9218
(lp9219
g25
aVoU
p9220
ag25
asVunless
p9221
(lp9222
g75
ag22
ag29
ag23
ag40
asVstorm
p9223
(lp9224
g40
ag3
aVo@
p9225
ag19
asVcombat
p9226
(lp9227
g25
ag164
ag19
ag74
ag20
ag3
asVcharms
p9228
(lp9229
VtS
p9230
aVA@
p9231
ag19
ag7
asVsenses
p9232
(lp9233
g40
ag23
ag22
ag40
aVI2
p9234
ag7
asVwho
p9235
(lp9236
g49
aVu:
p9237
asVdubs
p9238
(lp9239
g5
ag75
ag74
ag7
asVheadcrack
p9240
(lp9241
g49
ag23
ag5
ag25
ag68
ag20
ag25
asVeight
p9242
(lp9243
VeI
p9244
ag3
asVhardbody
p9245
(lp9246
g49
aVA@
p9247
ag5
ag74
ag164
ag5
ag76
asVvultures
p9248
(lp9249
g131
ag75
ag29
aVtS
p9250
ag88
ag7
asVcabinet
p9251
(lp9252
g25
ag20
ag74
aVI2
p9253
ag22
ag4
ag3
asVdesplam
p9254
(lp9255
g5
aVI2
p9256
ag40
ag42
ag29
ag20
ag19
asVlames
p9257
(lp9258
g29
aVeI
p9259
ag19
ag7
asVlined
p9260
(lp9261
g29
aVaI
p9262
ag22
ag5
asVtramps
p9263
(lp9264
g3
ag68
ag20
ag19
ag42
ag40
asVthanksgiving
p9265
(lp9266
g103
ag20
ag50
ag25
ag40
ag21
ag24
ag131
ag24
ag50
asVface
p9267
(lp9268
g36
aVeI
p9269
ag40
asVpipe
p9270
(lp9271
g42
aVaI
p9272
ag42
asVcalvins
p9273
(lp9274
g25
ag20
ag29
ag131
ag24
ag22
ag7
asVmovie
p9275
(lp9276
g19
aVu:
p9277
ag131
ag76
asVbrew
p9278
(lp9279
g74
ag68
aVu:
p9280
asVits
p9281
(lp9282
g24
ag3
ag40
asVaway
p9283
(lp9284
Va#
p9285
ag101
aVeI
p9286
asVfact
p9287
(lp9288
g36
ag20
ag25
ag3
asVgain
p9289
(lp9290
g21
aVeI
p9291
ag22
asVimpression
p9292
(lp9293
g24
ag19
ag42
ag68
ag23
ag116
ag4
ag22
asVlatinos
p9294
(lp9295
g29
ag20
ag3
aVi:
p9296
ag22
aVoU
p9297
ag7
asVstrollin
p9298
(lp9299
g40
ag3
ag68
ag164
ag29
aVI2
p9300
ag22
asVbondsman
p9301
(lp9302
g74
ag164
ag22
ag5
ag7
ag19
ag4
ag22
asVmatyrs
p9303
(lp9304
g19
ag20
ag3
ag88
ag7
asVstove
p9305
(lp9306
g40
ag3
aVoU
p9307
ag131
asVriffin
p9308
(lp9309
g68
ag24
ag36
ag24
ag22
asVheeeeey
p9310
(lp9311
g49
aVi:
p9312
ag12
aVi:
p9313
ag12
ag76
asVwop
p9314
(lp9315
g101
ag164
ag42
asVbring
p9316
(lp9317
g74
ag68
ag24
ag50
asVparked
p9318
(lp9319
g42
aVA@
p9320
ag25
ag3
asVtelling
p9321
(lp9322
g3
ag23
ag29
ag24
ag50
asVrough
p9323
(lp9324
g68
ag75
ag36
asVlonger
p9325
(lp9326
g29
ag164
ag50
ag21
ag88
asVstaff
p9327
(lp9328
g40
ag3
aVaa
p9329
ag36
asVpartners
p9330
(lp9331
g42
aVA@
p9332
ag3
ag22
ag88
ag7
asVtreach
p9333
(lp9334
g3
ag68
aVi:
p9335
aVtS
p9336
asVbased
p9337
(lp9338
g74
aVeI
p9339
ag40
ag3
asVtire
p9340
(lp9341
g3
aVaI@
p9342
asVblowin
p9343
(lp9344
g74
ag29
aVoU
p9345
ag24
ag22
asVsparks
p9346
(lp9347
g40
ag42
aVA@
p9348
ag25
ag40
asVmug
p9349
(lp9350
g19
ag75
ag21
asVshould
p9351
(lp9352
g116
ag141
ag5
asVbuttons
p9353
(lp9354
g74
ag75
ag3
ag4
ag22
ag7
asVloafers
p9355
(lp9356
g29
aVoU
p9357
ag36
ag88
ag7
asVplanted
p9358
(lp9359
g42
ag29
aVaa
p9360
ag22
ag3
aVI2
p9361
ag5
asVtape
p9362
(lp9363
g3
aVeI
p9364
ag42
asVindeed
p9365
(lp9366
g24
ag22
ag5
aVi:
p9367
ag5
asg74
(lp9368
g74
aVi:
p9369
asVthousands
p9370
(lp9371
g103
aVaU
p9372
ag7
ag4
ag22
ag5
ag7
asVhope
p9373
(lp9374
g49
aVoU
p9375
ag42
asVmeant
p9376
(lp9377
g19
ag23
ag22
ag3
asVlockin
p9378
(lp9379
g29
ag164
ag25
ag24
ag22
asVworkin
p9380
(lp9381
g101
aV3:
p9382
ag25
ag24
ag22
asVwatching
p9383
(lp9384
g101
ag164
aVtS
p9385
ag24
ag50
asVbeat
p9386
(lp9387
g74
aVi:
p9388
ag3
asVfamiliar
p9389
(lp9390
g36
ag4
ag19
ag24
ag29
aVi@3
p9391
asVdope
p9392
(lp9393
g5
aVoU
p9394
ag42
asVprops
p9395
(lp9396
g42
ag68
ag164
ag42
ag40
asVhire
p9397
(lp9398
g49
aVaI@
p9399
asVpave
p9400
(lp9401
g42
aVeI
p9402
ag131
asVdiddy
p9403
(lp9404
g5
ag24
ag5
ag76
asVjoint
p9405
(lp9406
VdZ
p9407
aVOI
p9408
ag22
ag3
asVones
p9409
(lp9410
g101
ag164
ag22
ag7
asVwords
p9411
(lp9412
g101
aV3:
p9413
ag5
ag7
asVprobably
p9414
(lp9415
g42
ag68
ag164
ag74
ag4
ag74
ag29
ag76
asVcrackerjacks
p9416
(lp9417
g25
ag68
ag20
ag25
ag88
aVdZ
p9418
ag20
ag25
ag40
asVkong
p9419
(lp9420
g25
ag164
ag50
asVchips
p9421
(lp9422
VtS
p9423
ag24
ag42
ag40
asVghetto
p9424
(lp9425
g21
ag23
ag3
aVoU
p9426
asVcrabs
p9427
(lp9428
g25
ag68
ag20
ag74
ag7
asVsmash
p9429
(lp9430
g40
ag19
ag20
ag116
asVscene
p9431
(lp9432
g40
aVi:
p9433
ag22
asVresteraunt
p9434
(lp9435
g68
aVI2
p9436
ag40
ag3
aV3:
p9437
ag68
aVO:
p9438
ag22
ag3
asVcourse
p9439
(lp9440
g25
aVo@
p9441
ag40
asVshy
p9442
(lp9443
g116
aVaI
p9444
asVrage
p9445
(lp9446
g68
aVeI
p9447
aVdZ
p9448
asVsharpshooter
p9449
(lp9450
g116
aVA@
p9451
ag42
ag116
aVu:
p9452
ag3
ag88
asVhugged
p9453
(lp9454
g49
ag75
ag21
ag5
asVslugs
p9455
(lp9456
g40
ag29
ag75
ag21
ag7
asVpeepin
p9457
(lp9458
g42
aVi:
p9459
ag42
ag24
ag22
asVdome
p9460
(lp9461
g5
aVoU
p9462
ag19
asVstuff
p9463
(lp9464
g40
ag3
ag75
ag36
asVshe
p9465
(lp9466
g116
aVi:
p9467
asVcontain
p9468
(lp9469
g25
ag4
ag22
ag3
aVeI
p9470
ag22
asVmercedes
p9471
(lp9472
g19
aV3:
p9473
ag40
aVeI
p9474
ag5
aVi:
p9475
ag7
asVfatalities
p9476
(lp9477
g36
aVeI
p9478
ag3
ag20
ag29
aVI2
p9479
ag3
ag76
ag7
asVgrab
p9480
(lp9481
g21
ag68
ag20
ag74
asVwatchin
p9482
(lp9483
g101
ag164
aVtS
p9484
ag24
ag22
asVview
p9485
(lp9486
g131
ag32
aVu:
p9487
asVjellin
p9488
(lp9489
VdZ
p9490
ag23
ag29
aVI2
p9491
ag22
asVpickin
p9492
(lp9493
g42
ag24
ag25
ag24
ag22
asVprayers
p9494
(lp9495
g42
ag68
aVe@
p9496
ag7
asVpacker
p9497
(lp9498
g42
ag20
ag25
ag88
asVpuddle
p9499
(lp9500
g42
ag75
ag5
aV@L
p9501
asVcajun
p9502
(lp9503
g25
aVeI
p9504
aVdZ
p9505
ag4
ag22
asVfreeze
p9506
(lp9507
g36
ag68
aVi:
p9508
ag7
asVebt
p9509
(lp9510
g23
ag74
ag3
asVcomputer
p9511
(lp9512
g25
ag4
ag19
ag42
ag32
aVu:
p9513
ag3
ag88
asVdriveway
p9514
(lp9515
g5
ag68
aVaI
p9516
ag131
ag101
aVeI
p9517
asVracket
p9518
(lp9519
g68
ag20
ag25
aVI2
p9520
ag3
asVwessuns
p9521
(lp9522
g101
ag23
ag40
ag75
ag22
ag7
asVstop
p9523
(lp9524
g40
ag3
ag164
ag42
asVtreyin
p9525
(lp9526
g3
ag68
aVeI
p9527
ag24
ag22
asVpacked
p9528
(lp9529
g42
ag20
ag25
ag3
asVinnovator
p9530
(lp9531
g24
ag22
ag4
ag131
aVeI
p9532
ag3
ag88
asVheaters
p9533
(lp9534
g49
aVi:
p9535
ag3
ag88
ag7
asVblunts
p9536
(lp9537
g74
ag29
ag75
ag22
ag3
ag40
asVwire
p9538
(lp9539
g101
aVaI@
p9540
asVgums
p9541
(lp9542
g21
ag75
ag19
ag7
asVpedigree
p9543
(lp9544
g42
ag23
ag5
ag24
ag21
ag68
aVi:
p9545
asVamtrak
p9546
(lp9547
g20
ag19
ag3
ag68
ag20
ag25
asVbroads
p9548
(lp9549
g74
ag68
aVO:
p9550
ag5
ag7
asVkangols
p9551
(lp9552
g25
ag20
ag50
ag21
ag164
ag29
ag7
asVtimbs
p9553
(lp9554
g3
ag24
ag19
ag7
asVlegalize
p9555
(lp9556
g29
aVi:
p9557
ag21
aV@L
p9558
aVaI
p9559
ag7
asVbelow
p9560
(lp9561
g74
aVI2
p9562
ag29
aVoU
p9563
asVincreased
p9564
(lp9565
g24
ag50
ag25
ag68
aVi:
p9566
ag40
ag3
asVworship
p9567
(lp9568
g101
aV3:
p9569
ag116
ag24
ag42
asVstate
p9570
(lp9571
g40
ag3
aVeI
p9572
ag3
asVclosed
p9573
(lp9574
g25
ag29
aVoU
p9575
ag7
ag5
asVroutine
p9576
(lp9577
g68
aVu:
p9578
ag3
aVi:
p9579
ag22
asVebola
p9580
(lp9581
Vi:
p9582
ag74
aVoU
p9583
ag29
ag4
asVlimit
p9584
(lp9585
g29
ag24
ag19
ag24
ag3
asVpistol
p9586
(lp9587
g42
ag24
ag40
ag3
aV@L
p9588
asVlinebacker
p9589
(lp9590
g29
aVaI
p9591
ag22
ag74
ag20
ag25
ag88
asVzipped
p9592
(lp9593
g7
ag24
ag42
ag3
asVpavarotti
p9594
(lp9595
g42
ag20
ag131
aVa#
p9596
ag68
ag164
ag3
ag76
asVbought
p9597
(lp9598
g74
aVO:
p9599
ag3
asVends
p9600
(lp9601
g23
ag22
ag5
ag7
asVjanet
p9602
(lp9603
VdZ
p9604
ag20
ag22
aVI2
p9605
ag3
asVjunkies
p9606
(lp9607
VdZ
p9608
ag75
ag50
ag25
ag76
ag7
asVweak
p9609
(lp9610
g101
aVi:
p9611
ag25
asVdeliver
p9612
(lp9613
g5
aVI2
p9614
ag29
ag24
ag131
ag88
asVadidas
p9615
(lp9616
g20
ag5
ag24
ag5
ag4
ag7
asVjob
p9617
(lp9618
VdZ
p9619
ag164
ag74
asVkey
p9620
(lp9621
g25
aVi:
p9622
asVsquads
p9623
(lp9624
g40
ag25
ag101
ag164
ag5
ag7
asVprecious
p9625
(lp9626
g42
ag68
ag23
ag116
ag4
ag40
asVproblem
p9627
(lp9628
g42
ag68
ag164
ag74
ag29
ag4
ag19
asVlegit
p9629
(lp9630
g29
ag4
aVdZ
p9631
ag24
ag3
asVtitties
p9632
(lp9633
g3
ag24
ag3
ag24
ag7
asVhits
p9634
(lp9635
g49
ag24
ag3
ag40
asVfigured
p9636
(lp9637
g36
ag24
ag21
ag88
ag5
asVdrum
p9638
(lp9639
g5
ag68
ag75
ag19
asVsniff
p9640
(lp9641
g40
ag22
ag24
ag36
asVplugin
p9642
(lp9643
g42
ag29
ag75
ag21
ag24
ag22
asVrobberies
p9644
(lp9645
g68
ag164
ag74
ag4
ag68
ag76
ag7
asVcoppin
p9646
(lp9647
g25
ag164
ag42
ag24
ag22
asVtaking
p9648
(lp9649
g3
aVeI
p9650
ag25
ag24
ag50
asVdrug
p9651
(lp9652
g5
ag68
ag75
ag21
asVcreeping
p9653
(lp9654
g25
ag68
aVi:
p9655
ag42
ag24
ag50
asVhustlers
p9656
(lp9657
g49
ag75
ag40
ag29
ag88
ag7
asVconsider
p9658
(lp9659
g25
ag4
ag22
ag40
ag24
ag5
ag88
asVdoorway
p9660
(lp9661
g5
aVo@
p9662
ag101
aVeI
p9663
asVgrain
p9664
(lp9665
g21
ag68
aVeI
p9666
ag22
asVstirring
p9667
(lp9668
g40
ag3
aV3:
p9669
ag68
ag24
ag50
asVsection
p9670
(lp9671
g40
ag23
ag25
ag116
ag4
ag22
asVpuff
p9672
(lp9673
g42
ag75
ag36
asVvent
p9674
(lp9675
g131
ag23
ag22
ag3
asVwall
p9676
(lp9677
g101
aVO:
p9678
ag29
asVtuesday
p9679
(lp9680
g3
ag32
aVu:
p9681
ag7
ag5
aVeI
p9682
asVmakin
p9683
(lp9684
g19
ag20
ag25
ag24
ag22
asVwalk
p9685
(lp9686
g101
aVO:
p9687
ag25
asVdedication
p9688
(lp9689
g5
ag23
ag5
ag24
ag25
aVeI
p9690
ag116
ag4
ag22
asVlaugh
p9691
(lp9692
g29
aVaa
p9693
ag36
asVcousin
p9694
(lp9695
g25
ag75
ag7
ag4
ag22
asVkings
p9696
(lp9697
g25
ag24
ag50
ag7
asVmafia
p9698
(lp9699
g19
ag20
ag36
ag76
ag12
ag4
asVblink
p9700
(lp9701
g74
ag29
ag24
ag50
ag25
asVpouring
p9702
(lp9703
g42
aVo@
p9704
ag68
ag24
ag50
asVcrackheads
p9705
(lp9706
g25
ag68
ag20
ag25
ag49
ag23
ag5
ag7
asVyay
p9707
(lp9708
g32
aVeI
p9709
asVsecond
p9710
(lp9711
g40
ag23
ag25
ag4
ag22
ag5
asVwills
p9712
(lp9713
g101
ag24
ag29
ag7
asVboulevards
p9714
(lp9715
g74
aVu:
p9716
ag29
aVI2
p9717
ag131
aVA@
p9718
ag5
ag7
asVcharts
p9719
(lp9720
VtS
p9721
aVA@
p9722
ag3
ag40
asVmarilyn
p9723
(lp9724
g19
ag20
ag68
ag4
ag29
aVI2
p9725
ag22
asVuhoh
p9726
(lp9727
g32
aVu:
p9728
ag49
aVoU
p9729
asVpoured
p9730
(lp9731
g42
aVo@
p9732
ag5
asVseasoned
p9733
(lp9734
g40
aVi:
p9735
ag7
ag4
ag22
ag5
asVtreat
p9736
(lp9737
g3
ag68
aVi:
p9738
ag3
asVtv
p9739
(lp9740
g3
aVi:
p9741
ag131
aVi:
p9742
asVbackstreets
p9743
(lp9744
g74
ag20
ag25
ag40
ag3
ag68
aVi:
p9745
ag3
ag40
asVwaste
p9746
(lp9747
g101
aVeI
p9748
ag40
ag3
asVak
p9749
(lp9750
g20
ag25
asVyoungster
p9751
(lp9752
g32
ag75
ag50
ag40
ag3
ag88
asVpity
p9753
(lp9754
g42
ag24
ag3
ag76
asVshoulders
p9755
(lp9756
g116
aVoU
p9757
ag29
ag5
ag88
ag7
asVliverpool
p9758
(lp9759
g29
ag24
ag131
ag88
ag42
aVu:
p9760
ag29
asVnickel
p9761
(lp9762
g22
ag24
ag25
aV@L
p9763
asVboth
p9764
(lp9765
g74
aVoU
p9766
ag103
asVrubble
p9767
(lp9768
g68
ag75
ag74
aV@L
p9769
asVcaddy
p9770
(lp9771
g25
ag20
ag5
ag76
asVal
p9772
(lp9773
g20
ag29
asVkoolaid
p9774
(lp9775
g25
aVu:
p9776
ag29
aVeI
p9777
ag5
asVredhead
p9778
(lp9779
g68
ag23
ag5
ag49
ag23
ag5
asVcontroller
p9780
(lp9781
g25
ag4
ag22
ag3
ag68
aVoU
p9782
ag29
ag88
asVtense
p9783
(lp9784
g3
ag23
ag22
ag40
asVmannequin
p9785
(lp9786
g19
ag20
ag22
aVI2
p9787
ag25
ag101
ag24
ag22
asVangles
p9788
(lp9789
g20
ag50
ag21
aV@L
p9790
ag7
asVbull
p9791
(lp9792
g74
ag141
ag29
asVpromethazine
p9793
(lp9794
g42
ag68
aVoU
p9795
ag19
aVi:
p9796
ag103
aVeI
p9797
ag7
aVi:
p9798
ag22
asVsmoking
p9799
(lp9800
g40
ag19
aVoU
p9801
ag25
ag24
ag50
asVfellow
p9802
(lp9803
g36
ag23
ag29
aVoU
p9804
asVhomes
p9805
(lp9806
g49
aVoU
p9807
ag19
ag7
asVcriminal
p9808
(lp9809
g25
ag68
ag24
ag19
ag24
ag22
aV@L
p9810
asVlicense
p9811
(lp9812
g29
aVaI
p9813
ag40
ag4
ag22
ag40
asVdodge
p9814
(lp9815
g5
ag164
aVdZ
p9816
asVplain
p9817
(lp9818
g42
ag29
aVeI
p9819
ag22
asVoding
p9820
(lp9821
VoU
p9822
ag5
ag24
ag50
asVtriggers
p9823
(lp9824
g3
ag68
ag24
ag21
ag88
ag7
asVharder
p9825
(lp9826
g49
aVA@
p9827
ag5
ag88
asVas
p9828
(lp9829
g20
ag7
asVchoices
p9830
(lp9831
VtS
p9832
aVOI
p9833
ag40
aVI2
p9834
ag7
asVchalk
p9835
(lp9836
VtS
p9837
aVO:
p9838
ag25
asVgucci
p9839
(lp9840
g21
aVu:
p9841
aVtS
p9842
ag76
asVhoodlum
p9843
(lp9844
g49
ag141
ag5
ag29
ag4
ag19
asVwild
p9845
(lp9846
g101
aVaI
p9847
ag29
ag5
asVbalance
p9848
(lp9849
g74
ag20
ag29
ag4
ag22
ag40
asVcribbin
p9850
(lp9851
g25
ag68
ag24
ag74
ag24
ag22
asVcarved
p9852
(lp9853
g25
aVA@
p9854
ag131
ag5
asVsupply
p9855
(lp9856
g40
ag4
ag42
ag29
aVaI
p9857
asVcrimies
p9858
(lp9859
g25
ag68
aVaI
p9860
ag19
ag76
ag7
asVringing
p9861
(lp9862
g68
ag24
ag50
ag24
ag50
asVdemo
p9863
(lp9864
g5
ag23
ag19
aVoU
p9865
asVprosper
p9866
(lp9867
g42
ag68
ag164
ag40
ag42
ag88
asVrips
p9868
(lp9869
g68
ag24
ag42
ag40
asVaces
p9870
(lp9871
VeI
p9872
ag40
aVI2
p9873
ag7
asVknick
p9874
(lp9875
g22
ag24
ag25
asVswinging
p9876
(lp9877
g40
ag101
ag24
ag50
ag24
ag50
asVlifetime
p9878
(lp9879
g29
aVaI
p9880
ag36
ag3
aVaI
p9881
ag19
asVthug
p9882
(lp9883
g103
ag75
ag21
asVinspector
p9884
(lp9885
g24
ag22
ag40
ag42
ag23
ag25
ag3
ag88
asVoverspend
p9886
(lp9887
VoU
p9888
ag131
ag88
ag40
ag42
ag23
ag22
ag5
asVwhore
p9889
(lp9890
g49
aVo@
p9891
asVpissin
p9892
(lp9893
g42
ag24
ag40
ag24
ag22
asVslammer
p9894
(lp9895
g40
ag29
ag20
ag19
ag88
asVvintage
p9896
(lp9897
g131
ag24
ag22
ag3
aVI2
p9898
aVdZ
p9899
asVconcealing
p9900
(lp9901
g25
ag4
ag22
ag40
aVi:
p9902
ag29
ag24
ag50
asVcross
p9903
(lp9904
g25
ag68
ag164
ag40
asVfoxy
p9905
(lp9906
g36
ag164
ag25
ag40
ag76
asVpiles
p9907
(lp9908
g42
aVaI
p9909
ag29
ag7
asVheadlines
p9910
(lp9911
g49
ag23
ag5
ag29
aVaI
p9912
ag22
ag7
asVparts
p9913
(lp9914
g42
aVA@
p9915
ag3
ag40
asVkvon
p9916
(lp9917
g25
aVeI
p9918
ag131
ag164
ag22
asVutica
p9919
(lp9920
g32
aVu:
p9921
ag3
ag24
ag25
ag4
asVunderground
p9922
(lp9923
g75
ag22
ag5
ag88
ag21
ag68
aVaU
p9924
ag22
ag5
asVparty
p9925
(lp9926
g42
aVA@
p9927
ag3
ag76
asVninetyfive
p9928
(lp9929
g22
aVaI
p9930
ag22
ag3
ag24
ag36
aVaI
p9931
ag131
asVtapped
p9932
(lp9933
g3
ag20
ag42
ag3
asVtwelfth
p9934
(lp9935
g3
ag101
ag23
ag29
ag36
ag103
asVball
p9936
(lp9937
g74
aVO:
p9938
ag29
asVrecline
p9939
(lp9940
g68
aVI2
p9941
ag25
ag29
aVaI
p9942
ag22
asVdiploma
p9943
(lp9944
g5
ag24
ag42
ag29
aVoU
p9945
ag19
ag4
asVbinoculars
p9946
(lp9947
g74
aVI2
p9948
ag22
ag164
ag25
ag32
ag141
ag29
ag88
ag7
asVspitting
p9949
(lp9950
g40
ag42
ag24
ag3
ag24
ag50
asVknahmsayin
p9951
(lp9952
g22
aVA:
p9953
ag19
ag40
aVeI
p9954
ag24
ag22
asVfucked
p9955
(lp9956
g36
ag75
ag25
ag3
asVwhale
p9957
(lp9958
g101
aVeI
p9959
ag29
asVlickin
p9960
(lp9961
g29
ag24
ag25
ag24
ag22
asVshitting
p9962
(lp9963
g116
ag24
ag3
ag24
ag50
asVpriest
p9964
(lp9965
g42
ag68
aVi:
p9966
ag40
ag3
asVoff
p9967
(lp9968
g164
ag36
asVstays
p9969
(lp9970
g40
ag3
aVeI
p9971
ag7
asVfully
p9972
(lp9973
g36
ag141
ag29
ag76
asg76
(lp9974
VaI
p9975
asVrollers
p9976
(lp9977
g68
aVoU
p9978
ag29
ag88
ag7
asVweapon
p9979
(lp9980
g101
ag23
ag42
ag4
ag22
asVwell
p9981
(lp9982
g101
ag23
ag29
asVbanging
p9983
(lp9984
g74
ag20
ag50
ag24
ag50
asVbluest
p9985
(lp9986
g74
ag29
aVu:
p9987
ag4
ag40
ag3
asVthought
p9988
(lp9989
g103
aVO:
p9990
ag3
asVriff
p9991
(lp9992
g68
ag24
ag36
asVcommand
p9993
(lp9994
g25
ag4
ag19
aVaa
p9995
ag22
ag5
asVdeadly
p9996
(lp9997
g5
ag23
ag5
ag29
ag76
asVposition
p9998
(lp9999
g42
ag4
ag7
ag24
ag116
ag4
ag22
asVmuscle
p10000
(lp10001
g19
ag75
ag40
aV@L
p10002
asVmeet
p10003
(lp10004
g19
aVi:
p10005
ag3
asVgully
p10006
(lp10007
g21
ag75
ag29
ag76
asVkiss
p10008
(lp10009
g25
ag24
ag40
asVcollectin
p10010
(lp10011
g25
ag4
ag29
ag23
ag25
ag3
ag24
ag22
asVflesh
p10012
(lp10013
g36
ag29
ag23
ag116
asVaccurate
p10014
(lp10015
g20
ag25
ag32
ag141
ag68
ag4
ag3
asVambition
p10016
(lp10017
g20
ag19
ag74
ag24
ag116
ag4
ag22
asVcakes
p10018
(lp10019
g25
aVeI
p10020
ag25
ag40
asVrocket
p10021
(lp10022
g68
ag164
ag25
aVI2
p10023
ag3
asVmistakes
p10024
(lp10025
g19
aVI2
p10026
ag40
ag3
aVeI
p10027
ag25
ag40
asVdistant
p10028
(lp10029
g5
ag24
ag40
ag3
ag4
ag22
ag3
asVrocked
p10030
(lp10031
g68
ag164
ag25
ag3
asVseats
p10032
(lp10033
g40
aVi:
p10034
ag3
ag40
asVcigarette
p10035
(lp10036
g40
ag24
ag21
ag4
ag68
ag23
ag3
asVrapid
p10037
(lp10038
g68
ag20
ag42
ag24
ag5
asVrapin
p10039
(lp10040
g68
ag20
ag42
ag24
ag22
asVscarface
p10041
(lp10042
g40
ag25
aVA@
p10043
ag36
aVeI
p10044
ag40
asVpoint
p10045
(lp10046
g42
aVOI
p10047
ag22
ag3
asVsmith
p10048
(lp10049
g40
ag19
ag24
ag103
asVlake
p10050
(lp10051
g29
aVeI
p10052
ag25
asVbullshit
p10053
(lp10054
g74
ag141
ag29
ag116
ag24
ag3
asVdrew
p10055
(lp10056
g5
ag68
aVu:
p10057
asVbattery
p10058
(lp10059
g74
ag20
ag3
ag4
ag68
ag76
asVclyde
p10060
(lp10061
g25
ag29
aVaI
p10062
ag5
asVother
p10063
(lp10064
g75
ag174
ag88
asVslits
p10065
(lp10066
g40
ag29
ag24
ag3
ag40
asVteller
p10067
(lp10068
g3
ag23
ag29
ag88
asVwet
p10069
(lp10070
g101
ag23
ag3
asVmorgue
p10071
(lp10072
g19
aVO@
p10073
ag21
asVhurry
p10074
(lp10075
g49
ag75
ag68
ag76
asVballoons
p10076
(lp10077
g74
ag4
ag29
aVu:
p10078
ag22
ag7
asVkick
p10079
(lp10080
g25
ag24
ag25
asVbreezing
p10081
(lp10082
g74
ag68
aVi:
p10083
ag7
ag24
ag50
asVtests
p10084
(lp10085
g3
ag23
ag40
ag3
ag40
asVlivin
p10086
(lp10087
g29
ag24
ag131
ag24
ag22
asVfate
p10088
(lp10089
g36
aVeI
p10090
ag3
asVsmashing
p10091
(lp10092
g40
ag19
ag20
ag116
ag24
ag50
asVroyalty
p10093
(lp10094
g68
aVOI
p10095
aV@L
p10096
ag3
ag76
asVfive
p10097
(lp10098
g36
aVaI
p10099
ag131
asVwhatever
p10100
(lp10101
g101
ag164
ag3
ag23
ag131
ag88
asVpress
p10102
(lp10103
g42
ag68
ag23
ag40
asVpies
p10104
(lp10105
g42
aVaI
p10106
ag7
asVloss
p10107
(lp10108
g29
ag164
ag40
asVdubai
p10109
(lp10110
g5
ag32
aVu:
p10111
ag74
aVaI
p10112
asVflamingo
p10113
(lp10114
g36
ag29
aVa#
p10115
ag19
ag24
ag50
ag21
aVoU
p10116
asVlike
p10117
(lp10118
g29
aVaI
p10119
ag25
asVlost
p10120
(lp10121
g29
ag164
ag40
ag3
asVcoogie
p10122
(lp10123
g25
aVu:
p10124
ag21
ag76
asVliftin
p10125
(lp10126
g29
ag24
ag36
ag3
ag24
ag22
asVtons
p10127
(lp10128
g3
ag75
ag22
ag7
asVriddle
p10129
(lp10130
g68
ag24
ag5
aV@L
p10131
asVloses
p10132
(lp10133
g29
aVu:
p10134
ag7
aVI2
p10135
ag7
asVarmani
p10136
(lp10137
VA@
p10138
ag19
aVA:
p10139
ag22
ag76
asVdresses
p10140
(lp10141
g5
ag68
ag23
ag40
aVI2
p10142
ag7
asVlose
p10143
(lp10144
g29
aVu:
p10145
ag7
asVchick
p10146
(lp10147
VtS
p10148
ag24
ag25
asVworks
p10149
(lp10150
g101
aV3:
p10151
ag25
ag40
asVtrucked
p10152
(lp10153
g3
ag68
ag75
ag25
ag3
asVnigga
p10154
(lp10155
g22
ag24
ag21
ag4
asVglare
p10156
(lp10157
g21
ag29
aVe@
p10158
asVpolar
p10159
(lp10160
g42
aVoU
p10161
ag29
ag88
asVbleedin
p10162
(lp10163
g74
ag29
aVi:
p10164
ag5
ag24
ag22
asVhail
p10165
(lp10166
g49
aVeI
p10167
ag29
asVimmortal
p10168
(lp10169
g24
ag19
aVO@
p10170
ag3
aV@L
p10171
asVholler
p10172
(lp10173
g49
ag164
ag29
ag88
asVshes
p10174
(lp10175
g116
aVI2
p10176
ag7
asVloaded
p10177
(lp10178
g29
aVoU
p10179
ag5
aVI2
p10180
ag5
asVproper
p10181
(lp10182
g42
ag68
ag164
ag42
ag88
asVhome
p10183
(lp10184
g49
aVoU
p10185
ag19
asVpeter
p10186
(lp10187
g42
aVi:
p10188
ag3
ag88
asVtreyeight
p10189
(lp10190
g3
ag68
aVeI
p10191
aVeI
p10192
ag3
asVbeheaded
p10193
(lp10194
g74
aVI2
p10195
ag49
ag23
ag5
aVI2
p10196
ag5
asVhappens
p10197
(lp10198
g49
ag20
ag42
ag4
ag22
ag7
asVcompetitor
p10199
(lp10200
g25
ag4
ag19
ag42
ag23
ag3
ag24
ag3
ag88
asVlead
p10201
(lp10202
g29
aVi:
p10203
ag5
asVsteaming
p10204
(lp10205
g40
ag3
aVi:
p10206
ag19
ag24
ag50
asVliterally
p10207
(lp10208
g29
ag24
ag3
ag88
ag68
aV@L
p10209
ag76
asVavoid
p10210
(lp10211
Va#
p10212
ag131
aVOI
p10213
ag5
asVlean
p10214
(lp10215
g29
aVi:
p10216
ag22
asVslide
p10217
(lp10218
g40
ag29
aVaI
p10219
ag5
asVshelter
p10220
(lp10221
g116
ag23
ag29
ag3
ag88
asVfloss
p10222
(lp10223
g36
ag29
ag164
ag40
asVdoes
p10224
(lp10225
g5
ag75
ag7
asVpassion
p10226
(lp10227
g42
ag20
ag116
ag4
ag22
asVmasked
p10228
(lp10229
g19
aVaa
p10230
ag40
ag25
ag3
asVgradually
p10231
(lp10232
g21
ag68
ag20
aVdZ
p10233
aVu:
p10234
aV@L
p10235
ag76
asVearrings
p10236
(lp10237
Vi@3
p10238
ag68
ag24
ag50
ag7
asVwarned
p10239
(lp10240
g101
aVO@
p10241
ag22
ag5
asVchains
p10242
(lp10243
VtS
p10244
aVeI
p10245
ag22
ag7
asVshouldve
p10246
(lp10247
g116
ag141
ag5
ag131
asVpiecin
p10248
(lp10249
g42
aVaI
p10250
ag40
ag24
ag22
asVmode
p10251
(lp10252
g19
aVoU
p10253
ag5
asVripped
p10254
(lp10255
g68
ag24
ag42
ag3
asVblowing
p10256
(lp10257
g74
ag29
aVoU
p10258
ag24
ag50
asVcoated
p10259
(lp10260
g25
aVoU
p10261
ag3
aVI2
p10262
ag5
asVslight
p10263
(lp10264
g40
ag29
aVaI
p10265
ag3
asVstags
p10266
(lp10267
g40
ag3
ag20
ag21
ag7
asVmitt
p10268
(lp10269
g19
ag24
ag3
asVturds
p10270
(lp10271
g3
aV3:
p10272
ag5
ag7
asVslut
p10273
(lp10274
g40
ag29
ag75
ag3
asVpaper
p10275
(lp10276
g42
aVeI
p10277
ag42
ag88
asVpressure
p10278
(lp10279
g42
ag68
ag23
ag116
ag88
asVmurdered
p10280
(lp10281
g19
aV3:
p10282
ag5
ag88
ag5
asVlinen
p10283
(lp10284
g29
ag24
ag22
aVI2
p10285
ag22
asVslum
p10286
(lp10287
g40
ag29
ag75
ag19
asVslug
p10288
(lp10289
g40
ag29
ag75
ag21
asVvuitton
p10290
(lp10291
g131
ag32
aVu:
p10292
ag24
ag3
ag4
ag22
asVjam
p10293
(lp10294
VdZ
p10295
ag20
ag19
asVsister
p10296
(lp10297
g40
ag24
ag40
ag3
ag88
asVcommited
p10298
(lp10299
g25
ag4
ag19
aVaI
p10300
ag3
aVI2
p10301
ag5
asVsocket
p10302
(lp10303
g40
ag164
ag25
aVI2
p10304
ag3
asVgetting
p10305
(lp10306
g21
ag23
ag3
ag24
ag50
asVinfrared
p10307
(lp10308
g24
ag22
ag36
ag68
ag4
ag68
ag23
ag5
asVkrs
p10309
(lp10310
g25
aVeI
p10311
aVA@
p10312
ag68
ag23
ag40
asVwaist
p10313
(lp10314
g101
aVeI
p10315
ag40
ag3
asVflake
p10316
(lp10317
g36
ag29
aVeI
p10318
ag25
asVfear
p10319
(lp10320
g36
aVi@3
p10321
asVswear
p10322
(lp10323
g40
ag101
aVe@
p10324
asVsweat
p10325
(lp10326
g40
ag101
ag23
ag3
asVpirahnas
p10327
(lp10328
g42
aV3:
p10329
ag68
aVA:
p10330
ag22
ag4
ag7
asVtongue
p10331
(lp10332
g3
ag75
ag50
asVunderstandin
p10333
(lp10334
g75
ag22
ag5
ag88
ag40
ag3
ag20
ag22
ag5
ag24
ag22
asVshoppin
p10335
(lp10336
g116
ag164
ag42
ag24
ag22
asVcontractions
p10337
(lp10338
g25
ag4
ag22
ag3
ag68
ag20
ag25
ag116
ag4
ag22
ag7
asVsmarts
p10339
(lp10340
g40
ag19
aVA@
p10341
ag3
ag40
asVcocked
p10342
(lp10343
g25
ag164
ag25
ag3
asVowe
p10344
(lp10345
VoU
p10346
asVpussy
p10347
(lp10348
g42
ag141
ag40
ag76
asVwarrants
p10349
(lp10350
g101
ag164
ag68
ag4
ag22
ag3
ag40
asVsocks
p10351
(lp10352
g40
ag164
ag25
ag40
asVchronic
p10353
(lp10354
g25
ag68
ag164
ag22
ag24
ag25
asVbolla
p10355
(lp10356
g74
ag164
ag29
ag4
asVweather
p10357
(lp10358
g101
ag23
ag174
ag88
asVtorches
p10359
(lp10360
g3
aVo@
p10361
aVtS
p10362
aVI2
p10363
ag7
asVcouldnt
p10364
(lp10365
g25
ag141
ag5
ag22
ag3
asVapplell
p10366
(lp10367
g20
ag42
aV@L
p10368
ag29
asVparkways
p10369
(lp10370
g42
aVA@
p10371
ag25
ag101
aVeI
p10372
ag7
asVwack
p10373
(lp10374
g101
ag20
ag25
asVvan
p10375
(lp10376
g131
ag20
ag22
asVlegends
p10377
(lp10378
g29
ag23
aVdZ
p10379
ag4
ag22
ag5
ag7
asVrushed
p10380
(lp10381
g68
ag75
ag116
ag3
asVvegetables
p10382
(lp10383
g131
ag23
aVdZ
p10384
aVI2
p10385
ag3
ag4
ag74
aV@L
p10386
ag7
asVtents
p10387
(lp10388
g3
ag23
ag22
ag3
ag40
asVcaviar
p10389
(lp10390
g25
ag20
ag131
ag24
ag12
aVA@
p10391
asVbeer
p10392
(lp10393
g74
aVi@3
p10394
asVspots
p10395
(lp10396
g40
ag42
ag164
ag3
ag40
asVimperial
p10397
(lp10398
g24
ag19
ag42
aVi@3
p10399
ag68
ag76
ag12
aV@L
p10400
asVbump
p10401
(lp10402
g74
ag75
ag19
ag42
asVmuch
p10403
(lp10404
g19
ag75
aVtS
p10405
asVpool
p10406
(lp10407
g42
aVu:
p10408
ag29
asVcandy
p10409
(lp10410
g25
ag20
ag22
ag5
ag76
asVnikes
p10411
(lp10412
g22
aVaI
p10413
ag25
ag40
asVnaturally
p10414
(lp10415
g22
ag20
aVtS
p10416
ag4
ag68
aV@L
p10417
ag76
asVfunction
p10418
(lp10419
g36
ag75
ag50
ag25
ag116
ag4
ag22
asVbums
p10420
(lp10421
g74
ag75
ag19
ag7
asVnorth
p10422
(lp10423
g22
aVO@
p10424
ag103
asVfrisk
p10425
(lp10426
g36
ag68
ag24
ag40
ag25
asVfunds
p10427
(lp10428
g36
ag75
ag22
ag5
ag7
asVbrand
p10429
(lp10430
g74
ag68
ag20
ag22
ag5
asVbitches
p10431
(lp10432
g74
ag24
aVtS
p10433
aVI2
p10434
ag7
asVbut
p10435
(lp10436
g74
ag75
ag3
asVhk
p10437
(lp10438
VeI
p10439
aVtS
p10440
ag25
aVeI
p10441
asVgunslingin
p10442
(lp10443
g21
ag75
ag22
ag40
ag29
ag24
ag50
ag21
ag24
ag22
asVho
p10444
(lp10445
g49
aVoU
p10446
asVmclaren
p10447
(lp10448
g19
ag4
ag25
ag29
ag20
ag68
ag4
ag22
asVbe
p10449
(lp10450
g74
aVi:
p10451
asVear
p10452
(lp10453
Vi@3
p10454
asVeat
p10455
(lp10456
Vi:
p10457
ag3
asVhe
p10458
(lp10459
g49
aVi:
p10460
asVcount
p10461
(lp10462
g25
aVaU
p10463
ag22
ag3
asVmnage
p10464
(lp10465
g19
aVeI
p10466
ag22
aVA:
p10467
ag46
asVwise
p10468
(lp10469
g101
aVaI
p10470
ag7
asVfarrah
p10471
(lp10472
g36
ag20
ag68
ag4
asVbloodline
p10473
(lp10474
g74
ag29
ag75
ag5
ag29
aVaI
p10475
ag22
asVwhether
p10476
(lp10477
g101
ag23
ag174
ag88
asVwish
p10478
(lp10479
g101
ag24
ag116
asVsmooth
p10480
(lp10481
g40
ag19
aVu:
p10482
ag174
asVflip
p10483
(lp10484
g36
ag29
ag24
ag42
asVstretchin
p10485
(lp10486
g40
ag3
ag68
ag23
aVtS
p10487
ag24
ag22
asVrecord
p10488
(lp10489
g68
ag23
ag25
aVO@
p10490
ag5
asVcarriage
p10491
(lp10492
g25
ag20
ag68
aVI2
p10493
aVdZ
p10494
asVcnotes
p10495
(lp10496
g40
aVi:
p10497
ag22
aVoU
p10498
ag3
ag40
asVempty
p10499
(lp10500
g23
ag19
ag42
ag3
ag76
asVcake
p10501
(lp10502
g25
aVeI
p10503
ag25
asVsuckin
p10504
(lp10505
g40
ag75
ag25
ag24
ag22
asVfaggot
p10506
(lp10507
g36
ag20
ag21
ag4
ag3
asVdame
p10508
(lp10509
g5
aVeI
p10510
ag19
asVrussian
p10511
(lp10512
g68
ag75
ag116
ag4
ag22
asVmechanics
p10513
(lp10514
g19
aVI2
p10515
ag25
ag20
ag22
ag24
ag25
ag40
asVveight
p10516
(lp10517
g131
aVeI
p10518
ag3
asVreservations
p10519
(lp10520
g68
ag23
ag7
ag88
ag131
aVeI
p10521
ag116
ag4
ag22
ag7
asVkisses
p10522
(lp10523
g25
ag24
ag40
aVI2
p10524
ag7
asVpie
p10525
(lp10526
g42
aVaI
p10527
asVtwist
p10528
(lp10529
g3
ag101
ag24
ag40
ag3
asVboardwalk
p10530
(lp10531
g74
aVo@
p10532
ag5
ag101
aVO:
p10533
ag25
asVfinished
p10534
(lp10535
g36
ag24
ag22
ag24
ag116
ag3
asVklux
p10536
(lp10537
g25
ag29
ag75
ag25
ag40
asVkissed
p10538
(lp10539
g25
ag24
ag40
ag3
asVhappen
p10540
(lp10541
g49
ag20
ag42
ag4
ag22
asVbalcony
p10542
(lp10543
g74
ag20
ag29
ag25
ag4
ag22
ag76
asVreincarnator
p10544
(lp10545
g68
aVi:
p10546
ag12
ag24
ag50
ag25
aVA@
p10547
ag22
aVeI
p10548
ag3
ag88
asVsprays
p10549
(lp10550
g40
ag42
ag68
aVeI
p10551
ag7
asVdressed
p10552
(lp10553
g5
ag68
ag23
ag40
ag3
asVsaunas
p10554
(lp10555
g40
aVO:
p10556
ag22
ag4
ag7
asVclaiming
p10557
(lp10558
g25
ag29
aVeI
p10559
ag19
ag24
ag50
asVlately
p10560
(lp10561
g29
aVeI
p10562
ag3
ag29
ag76
asVroars
p10563
(lp10564
g68
aVo@
p10565
ag7
asVbook
p10566
(lp10567
g74
ag141
ag25
asVboom
p10568
(lp10569
g74
aVu:
p10570
ag19
asVsick
p10571
(lp10572
g40
ag24
ag25
asVclicks
p10573
(lp10574
g25
ag29
ag24
ag25
ag40
asVchemist
p10575
(lp10576
g25
ag23
ag19
ag24
ag40
ag3
asVarea
p10577
(lp10578
Ve@
p10579
ag68
aVi@
p10580
asVrepeat
p10581
(lp10582
g68
aVI2
p10583
ag42
aVi:
p10584
ag3
asVmonday
p10585
(lp10586
g19
ag75
ag22
ag5
aVeI
p10587
asVyellowtaped
p10588
(lp10589
g32
ag23
ag29
aVoU
p10590
ag3
aVeI
p10591
ag42
ag3
asVshredded
p10592
(lp10593
g116
ag68
ag23
ag5
aVI2
p10594
ag5
asVclass
p10595
(lp10596
g25
ag29
aVaa
p10597
ag40
asVbeatin
p10598
(lp10599
g74
aVi:
p10600
ag3
ag24
ag22
asVstay
p10601
(lp10602
g40
ag3
aVeI
p10603
asVtown
p10604
(lp10605
g3
aVaU
p10606
ag22
asVchance
p10607
(lp10608
VtS
p10609
aVaa
p10610
ag22
ag40
asVpumps
p10611
(lp10612
g42
ag75
ag19
ag42
ag40
asVkinda
p10613
(lp10614
g25
aVaI
p10615
ag22
ag5
ag4
asVcapers
p10616
(lp10617
g25
aVeI
p10618
ag42
ag88
ag7
asVfriends
p10619
(lp10620
g36
ag68
ag23
ag22
ag5
ag7
asVvein
p10621
(lp10622
g131
aVeI
p10623
ag22
asVopened
p10624
(lp10625
VoU
p10626
ag42
ag4
ag22
ag5
asVusing
p10627
(lp10628
g32
aVu:
p10629
ag7
ag24
ag50
asVoral
p10630
(lp10631
Vo@
p10632
ag68
aV@L
p10633
asVteachin
p10634
(lp10635
g3
aVi:
p10636
aVtS
p10637
ag24
ag22
asVlives
p10638
(lp10639
g29
aVaI
p10640
ag131
ag7
asVyell
p10641
(lp10642
g32
ag23
ag29
as(lp10643
g12
aVaa
p10644
aVA@
p10645
aV\u000a
p10646
aVtS
p10647
aV@L
p10648
aVe@
p10649
aVO:
p10650
ag50
aVO@
p10651
aVeI
p10652
aVu:
p10653
aVaI
p10654
aVI2
p10655
aVOI
p10656
ag164
ag88
aVaU
p10657
aVi@
p10658
aVA:
p10659
aVaI@
p10660
ag4
aVa#
p10661
aVi:
p10662
ag23
ag174
ag24
aVo@
p10663
ag116
ag141
ag103
ag75
aVi@3
p10664
aVoU
p10665
ag46
ag20
aV3:
p10666
ag74
ag5
ag21
ag36
ag76
ag49
ag25
ag32
ag19
ag29
ag22
ag42
ag40
ag68
aVdZ
p10667
ag3
ag101
ag131
ag7
aVU@
p10668
atp10669
.